(lp1
(dp2
(S'(-inf-0.1878]'
p3
S'(1.1844-1.7766]'
p4
I0
tp5
I18
s(S'(0.1878-0.2746]'
p6
S'(-inf-0.5922]'
p7
I1
tp8
I72
s(S'(0.3614-0.4482]'
p9
S'(1.7766-2.3688]'
p10
I0
tp11
I1
s(S'(0.6218-0.7086]'
p12
S'(-inf-0.5922]'
p13
I0
tp14
I1
s(S'(-inf-0.1878]'
p15
S'(2.3688-2.961]'
p16
I1
tp17
I1
s(S'(-inf-0.1878]'
p18
S'(-inf-0.5922]'
p19
I1
tp20
I215
s(S'(-inf-0.1878]'
p21
S'(2.3688-2.961]'
p22
I0
tp23
I3
s(S'(0.2746-0.3614]'
p24
S'(-inf-0.5922]'
p25
I0
tp26
I41
s(S'(-inf-0.1878]'
p27
S'(-inf-0.5922]'
p28
I0
tp29
I1748
s(S'(0.2746-0.3614]'
p30
S'(-inf-0.5922]'
p31
I1
tp32
I2
s(S'(0.535-0.6218]'
p33
S'(-inf-0.5922]'
p34
I0
tp35
I1
s(S'(0.3614-0.4482]'
p36
S'(-inf-0.5922]'
p37
I0
tp38
I10
s(S'(0.1878-0.2746]'
p39
S'(2.3688-2.961]'
p40
I0
tp41
I1
s(S'(0.1878-0.2746]'
p42
S'(1.1844-1.7766]'
p43
I0
tp44
I2
s(S'(-inf-0.1878]'
p45
S'(0.5922-1.1844]'
p46
I0
tp47
I41
s(S'(0.1878-0.2746]'
p48
S'(-inf-0.5922]'
p49
I0
tp50
I653
s(S'(0.4482-0.535]'
p51
S'(-inf-0.5922]'
p52
I0
tp53
I3
s(S'(-inf-0.1878]'
p54
S'(1.7766-2.3688]'
p55
I0
tp56
I8
s(S'(-inf-0.1878]'
p57
S'(1.7766-2.3688]'
p58
I1
tp59
I2
s(S'(-inf-0.1878]'
p60
S'(5.3298-inf)'
p61
I1
tp62
I1
s(S'(0.1878-0.2746]'
p63
S'(0.5922-1.1844]'
p64
I0
tp65
I13
s(S'(0.8822-inf)'
p66
S'(-inf-0.5922]'
p67
I0
tp68
I2
s(S'(-inf-0.1878]'
p69
S'(3.5532-4.1454]'
p70
I1
tp71
I1
s(S'(-inf-0.1878]'
p72
S'(2.961-3.5532]'
p73
I0
tp74
I1
s(S'(-inf-0.1878]'
p75
S'(3.5532-4.1454]'
p76
I0
tp77
I1
s(S'(0.1878-0.2746]'
p78
S'(1.7766-2.3688]'
p79
I0
tp80
I2
sa(dp81
(S'(0.1878-0.2746]'
p82
S'(2.5633-3.3774]'
p83
I1
tp84
I8
s(S'(0.2746-0.3614]'
p85
S'(3.3774-4.1915]'
p86
I1
tp87
I1
s(S'(-inf-0.1878]'
p88
S'(0.9351-1.7492]'
p89
I0
tp90
I101
s(g48
S'(2.5633-3.3774]'
p91
I0
tp92
I226
s(S'(-inf-0.1878]'
p93
S'(0.9351-1.7492]'
p94
I1
tp95
I2
s(S'(-inf-0.1878]'
p96
S'(5.8197-6.6338]'
p97
I1
tp98
I3
s(g36
S'(2.5633-3.3774]'
p99
I0
tp100
I5
s(S'(-inf-0.1878]'
p101
S'(-inf-0.9351]'
p102
I1
tp103
I1
s(S'(0.1878-0.2746]'
p104
S'(5.0056-5.8197]'
p105
I1
tp106
I1
s(S'(-inf-0.1878]'
p107
S'(-inf-0.9351]'
p108
I0
tp109
I54
s(S'(0.1878-0.2746]'
p110
S'(1.7492-2.5633]'
p111
I0
tp112
I416
s(S'(0.8822-inf)'
p113
S'(1.7492-2.5633]'
p114
I0
tp115
I1
s(g6
S'(1.7492-2.5633]'
p116
I1
tp117
I30
s(g18
S'(2.5633-3.3774]'
p118
I1
tp119
I38
s(S'(-inf-0.1878]'
p120
S'(4.1915-5.0056]'
p121
I1
tp122
I3
s(g27
S'(2.5633-3.3774]'
p123
I0
tp124
I636
s(S'(-inf-0.1878]'
p125
S'(1.7492-2.5633]'
p126
I0
tp127
I953
s(S'(0.1878-0.2746]'
p128
S'(-inf-0.9351]'
p129
I0
tp130
I9
s(g12
S'(2.5633-3.3774]'
p131
I0
tp132
I1
s(g24
S'(2.5633-3.3774]'
p133
I0
tp134
I14
s(S'(0.3614-0.4482]'
p135
S'(3.3774-4.1915]'
p136
I0
tp137
I1
s(g33
S'(-inf-0.9351]'
p138
I0
tp139
I1
s(S'(0.1878-0.2746]'
p140
S'(3.3774-4.1915]'
p141
I0
tp142
I11
s(S'(0.4482-0.535]'
p143
S'(0.9351-1.7492]'
p144
I0
tp145
I1
s(S'(0.1878-0.2746]'
p146
S'(3.3774-4.1915]'
p147
I1
tp148
I33
s(S'(0.1878-0.2746]'
p149
S'(0.9351-1.7492]'
p150
I0
tp151
I9
s(S'(0.2746-0.3614]'
p152
S'(1.7492-2.5633]'
p153
I0
tp154
I26
s(S'(-inf-0.1878]'
p155
S'(5.0056-5.8197]'
p156
I1
tp157
I1
s(g30
S'(1.7492-2.5633]'
p158
I1
tp159
I1
s(g66
S'(2.5633-3.3774]'
p160
I0
tp161
I1
s(S'(0.2746-0.3614]'
p162
S'(0.9351-1.7492]'
p163
I0
tp164
I1
s(S'(-inf-0.1878]'
p165
S'(3.3774-4.1915]'
p166
I1
tp167
I121
s(S'(-inf-0.1878]'
p168
S'(3.3774-4.1915]'
p169
I0
tp170
I76
s(g51
S'(2.5633-3.3774]'
p171
I0
tp172
I2
s(S'(0.3614-0.4482]'
p173
S'(1.7492-2.5633]'
p174
I0
tp175
I5
s(g60
S'(1.7492-2.5633]'
p176
I1
tp177
I51
sa(dp178
(S'(-inf-0.1878]'
p179
S'(-inf-0.4074]'
p180
I0
tp181
I10
s(S'(0.1878-0.2746]'
p182
S'(1.2222-1.6296]'
p183
I0
tp184
I49
s(S'(-inf-0.1878]'
p185
S'(-inf-0.4074]'
p186
I1
tp187
I44
s(S'(-inf-0.1878]'
p188
S'(2.4444-2.8518]'
p189
I1
tp190
I1
s(g173
S'(0.4074-0.8148]'
p191
I0
tp192
I2
s(g60
S'(0.8148-1.2222]'
p193
I1
tp194
I57
s(S'(0.1878-0.2746]'
p195
S'(0.4074-0.8148]'
p196
I0
tp197
I172
s(g27
S'(0.8148-1.2222]'
p198
I0
tp199
I929
s(S'(0.1878-0.2746]'
p200
S'(0.4074-0.8148]'
p201
I1
tp202
I32
s(S'(-inf-0.1878]'
p203
S'(0.4074-0.8148]'
p204
I1
tp205
I108
s(S'(0.1878-0.2746]'
p206
S'(1.6296-2.037]'
p207
I1
tp208
I3
s(S'(-inf-0.1878]'
p209
S'(0.4074-0.8148]'
p210
I0
tp211
I835
s(S'(0.1878-0.2746]'
p212
S'(1.6296-2.037]'
p213
I0
tp214
I5
s(g143
S'(0.4074-0.8148]'
p215
I0
tp216
I1
s(S'(0.1878-0.2746]'
p217
S'(2.037-2.4444]'
p218
I1
tp219
I1
s(S'(-inf-0.1878]'
p220
S'(2.037-2.4444]'
p221
I1
tp222
I1
s(g12
S'(1.6296-2.037]'
p223
I0
tp224
I1
s(g48
S'(0.8148-1.2222]'
p225
I0
tp226
I445
s(g51
S'(0.8148-1.2222]'
p227
I0
tp228
I2
s(g66
S'(0.8148-1.2222]'
p229
I0
tp230
I2
s(S'(0.2746-0.3614]'
p231
S'(0.4074-0.8148]'
p232
I0
tp233
I7
s(g146
S'(0.8148-1.2222]'
p234
I1
tp235
I6
s(g6
S'(-inf-0.4074]'
p236
I1
tp237
I27
s(S'(-inf-0.1878]'
p238
S'(1.6296-2.037]'
p239
I0
tp240
I1
s(g85
S'(0.4074-0.8148]'
p241
I1
tp242
I1
s(S'(0.2746-0.3614]'
p243
S'(1.2222-1.6296]'
p244
I0
tp245
I2
s(g18
S'(1.6296-2.037]'
p246
I1
tp247
I3
s(g36
S'(0.8148-1.2222]'
p248
I0
tp249
I9
s(S'(0.1878-0.2746]'
p250
S'(1.2222-1.6296]'
p251
I1
tp252
I3
s(S'(-inf-0.1878]'
p253
S'(3.6666-inf)'
p254
I0
tp255
I1
s(g33
S'(0.4074-0.8148]'
p256
I0
tp257
I1
s(S'(-inf-0.1878]'
p258
S'(1.2222-1.6296]'
p259
I0
tp260
I44
s(g24
S'(0.8148-1.2222]'
p261
I0
tp262
I32
s(S'(-inf-0.1878]'
p263
S'(1.2222-1.6296]'
p264
I1
tp265
I6
s(g30
S'(-inf-0.4074]'
p266
I1
tp267
I1
sa(dp268
(g60
S'(109-124.5]'
p269
I1
tp270
I6
s(S'(0.1878-0.2746]'
p271
S'(-inf-31.5]'
p272
I1
tp273
I22
s(S'(-inf-0.1878]'
p274
S'(31.5-47]'
p275
I0
tp276
I196
s(g125
S'(124.5-140]'
p277
I0
tp278
I56
s(S'(0.2746-0.3614]'
p279
S'(93.5-109]'
p280
I0
tp281
I6
s(S'(-inf-0.1878]'
p282
S'(109-124.5]'
p283
I0
tp284
I100
s(S'(-inf-0.1878]'
p285
S'(78-93.5]'
p286
I1
tp287
I19
s(g36
S'(62.5-78]'
p288
I0
tp289
I2
s(S'(-inf-0.1878]'
p290
S'(124.5-140]'
p291
I1
tp292
I2
s(g162
S'(62.5-78]'
p293
I0
tp294
I3
s(g231
S'(78-93.5]'
p295
I0
tp296
I6
s(S'(-inf-0.1878]'
p297
S'(78-93.5]'
p298
I0
tp299
I277
s(g15
S'(93.5-109]'
p300
I1
tp301
I8
s(g6
S'(62.5-78]'
p302
I1
tp303
I10
s(g24
S'(109-124.5]'
p304
I0
tp305
I6
s(g27
S'(93.5-109]'
p306
I0
tp307
I205
s(g18
S'(62.5-78]'
p308
I1
tp309
I26
s(g30
S'(109-124.5]'
p310
I1
tp311
I1
s(g113
S'(47-62.5]'
p312
I0
tp313
I1
s(S'(-inf-0.1878]'
p314
S'(62.5-78]'
p315
I0
tp316
I429
s(g12
S'(93.5-109]'
p317
I0
tp318
I1
s(S'(-inf-0.1878]'
p319
S'(-inf-31.5]'
p320
I1
tp321
I112
s(g48
S'(109-124.5]'
p322
I0
tp323
I121
s(S'(0.1878-0.2746]'
p324
S'(-inf-31.5]'
p325
I0
tp326
I19
s(g51
S'(62.5-78]'
p327
I0
tp328
I1
s(S'(0.3614-0.4482]'
p329
S'(124.5-140]'
p330
I0
tp331
I2
s(S'(0.1878-0.2746]'
p332
S'(109-124.5]'
p333
I1
tp334
I14
s(g85
S'(-inf-31.5]'
p335
I1
tp336
I1
s(g152
S'(124.5-140]'
p337
I0
tp338
I12
s(S'(0.1878-0.2746]'
p339
S'(93.5-109]'
p340
I0
tp341
I85
s(S'(0.2746-0.3614]'
p342
S'(-inf-31.5]'
p343
I0
tp344
I1
s(g135
S'(-inf-31.5]'
p345
I0
tp346
I1
s(S'(0.1878-0.2746]'
p347
S'(93.5-109]'
p348
I1
tp349
I8
s(S'(0.1878-0.2746]'
p350
S'(78-93.5]'
p351
I0
tp352
I124
s(g143
S'(47-62.5]'
p353
I0
tp354
I1
s(S'(0.2746-0.3614]'
p355
S'(140-155.5]'
p356
I0
tp357
I5
s(S'(-inf-0.1878]'
p358
S'(155.5-inf)'
p359
I0
tp360
I1
s(S'(0.1878-0.2746]'
p361
S'(78-93.5]'
p362
I1
tp363
I3
s(S'(0.3614-0.4482]'
p364
S'(93.5-109]'
p365
I0
tp366
I1
s(g93
S'(47-62.5]'
p367
I1
tp368
I18
s(S'(0.1878-0.2746]'
p369
S'(31.5-47]'
p370
I0
tp371
I27
s(S'(0.1878-0.2746]'
p372
S'(62.5-78]'
p373
I0
tp374
I101
s(S'(-inf-0.1878]'
p375
S'(31.5-47]'
p376
I1
tp377
I29
s(S'(0.1878-0.2746]'
p378
S'(140-155.5]'
p379
I0
tp380
I29
s(S'(0.3614-0.4482]'
p381
S'(47-62.5]'
p382
I0
tp383
I1
s(S'(0.1878-0.2746]'
p384
S'(155.5-inf)'
p385
I0
tp386
I6
s(S'(0.4482-0.535]'
p387
S'(78-93.5]'
p388
I0
tp389
I1
s(S'(0.1878-0.2746]'
p390
S'(124.5-140]'
p391
I1
tp392
I4
s(S'(0.2746-0.3614]'
p393
S'(47-62.5]'
p394
I0
tp395
I2
s(g66
S'(93.5-109]'
p396
I0
tp397
I1
s(g33
S'(62.5-78]'
p398
I0
tp399
I1
s(S'(0.1878-0.2746]'
p400
S'(124.5-140]'
p401
I0
tp402
I116
s(S'(-inf-0.1878]'
p403
S'(47-62.5]'
p404
I0
tp405
I350
s(S'(0.1878-0.2746]'
p406
S'(31.5-47]'
p407
I1
tp408
I10
s(S'(-inf-0.1878]'
p409
S'(140-155.5]'
p410
I0
tp411
I5
s(S'(0.1878-0.2746]'
p412
S'(47-62.5]'
p413
I0
tp414
I43
s(g82
S'(47-62.5]'
p415
I1
tp416
I1
s(S'(0.3614-0.4482]'
p417
S'(31.5-47]'
p418
I0
tp419
I1
s(S'(-inf-0.1878]'
p420
S'(-inf-31.5]'
p421
I0
tp422
I201
s(S'(0.3614-0.4482]'
p423
S'(78-93.5]'
p424
I0
tp425
I3
sa(dp426
(g12
S'(51.238-52.504]'
p427
I0
tp428
I1
s(S'(0.1878-0.2746]'
p429
S'(-inf-42.376]'
p430
I0
tp431
I7
s(S'(0.2746-0.3614]'
p432
S'(44.908-46.174]'
p433
I0
tp434
I1
s(g342
S'(48.706-49.972]'
p435
I0
tp436
I1
s(g85
S'(48.706-49.972]'
p437
I1
tp438
I1
s(g27
S'(51.238-52.504]'
p439
I0
tp440
I490
s(S'(-inf-0.1878]'
p441
S'(44.908-46.174]'
p442
I0
tp443
I2
s(g15
S'(51.238-52.504]'
p444
I1
tp445
I7
s(S'(0.2746-0.3614]'
p446
S'(-inf-42.376]'
p447
I0
tp448
I1
s(S'(0.1878-0.2746]'
p449
S'(52.504-inf)'
p450
I0
tp451
I206
s(S'(0.1878-0.2746]'
p452
S'(46.174-47.44]'
p453
I0
tp454
I6
s(g66
S'(52.504-inf)'
p455
I0
tp456
I1
s(g6
S'(52.504-inf)'
p457
I1
tp458
I13
s(g381
S'(47.44-48.706]'
p459
I0
tp460
I2
s(S'(0.2746-0.3614]'
p461
S'(46.174-47.44]'
p462
I0
tp463
I1
s(g36
S'(51.238-52.504]'
p464
I0
tp465
I4
s(S'(-inf-0.1878]'
p466
S'(47.44-48.706]'
p467
I0
tp468
I377
s(g282
S'(52.504-inf)'
p469
I0
tp470
I249
s(S'(-inf-0.1878]'
p471
S'(42.376-43.642]'
p472
I0
tp473
I1
s(g9
S'(48.706-49.972]'
p474
I0
tp475
I3
s(S'(0.1878-0.2746]'
p476
S'(44.908-46.174]'
p477
I0
tp478
I1
s(g51
S'(51.238-52.504]'
p479
I0
tp480
I3
s(g60
S'(49.972-51.238]'
p481
I1
tp482
I6
s(S'(0.2746-0.3614]'
p483
S'(47.44-48.706]'
p484
I0
tp485
I4
s(g152
S'(52.504-inf)'
p486
I0
tp487
I14
s(S'(0.1878-0.2746]'
p488
S'(48.706-49.972]'
p489
I0
tp490
I118
s(S'(-inf-0.1878]'
p491
S'(49.972-51.238]'
p492
I0
tp493
I44
s(g206
S'(51.238-52.504]'
p494
I1
tp495
I18
s(g33
S'(52.504-inf)'
p496
I0
tp497
I1
s(g361
S'(48.706-49.972]'
p498
I1
tp499
I35
s(S'(0.1878-0.2746]'
p500
S'(47.44-48.706]'
p501
I1
tp502
I6
s(g48
S'(51.238-52.504]'
p503
I0
tp504
I247
s(S'(0.1878-0.2746]'
p505
S'(47.44-48.706]'
p506
I0
tp507
I63
s(S'(0.2746-0.3614]'
p508
S'(49.972-51.238]'
p509
I0
tp510
I3
s(S'(-inf-0.1878]'
p511
S'(-inf-42.376]'
p512
I0
tp513
I7
s(g30
S'(51.238-52.504]'
p514
I1
tp515
I1
s(g24
S'(51.238-52.504]'
p516
I0
tp517
I16
s(g69
S'(48.706-49.972]'
p518
I1
tp519
I173
s(S'(-inf-0.1878]'
p520
S'(46.174-47.44]'
p521
I0
tp522
I25
s(S'(0.1878-0.2746]'
p523
S'(49.972-51.238]'
p524
I0
tp525
I23
s(S'(-inf-0.1878]'
p526
S'(48.706-49.972]'
p527
I0
tp528
I625
s(g329
S'(52.504-inf)'
p529
I0
tp530
I2
s(g18
S'(52.504-inf)'
p531
I1
tp532
I15
s(g113
S'(47.44-48.706]'
p533
I0
tp534
I1
s(S'(-inf-0.1878]'
p535
S'(47.44-48.706]'
p536
I1
tp537
I19
sa(dp538
(S'(-inf-0.1878]'
p539
S'(23.176-28.28]'
p540
I1
tp541
I8
s(g48
S'(18.072-23.176]'
p542
I0
tp543
I118
s(S'(-inf-0.1878]'
p544
S'(7.864-12.968]'
p545
I0
tp546
I720
s(S'(0.1878-0.2746]'
p547
S'(38.488-43.592]'
p548
I0
tp549
I6
s(g339
S'(12.968-18.072]'
p550
I0
tp551
I186
s(g3
S'(23.176-28.28]'
p552
I0
tp553
I110
s(S'(-inf-0.1878]'
p554
S'(48.696-inf)'
p555
I0
tp556
I11
s(g200
S'(12.968-18.072]'
p557
I1
tp558
I14
s(S'(0.2746-0.3614]'
p559
S'(23.176-28.28]'
p560
I0
tp561
I2
s(S'(0.2746-0.3614]'
p562
S'(38.488-43.592]'
p563
I0
tp564
I1
s(S'(0.1878-0.2746]'
p565
S'(-inf-7.864]'
p566
I0
tp567
I29
s(S'(-inf-0.1878]'
p568
S'(33.384-38.488]'
p569
I0
tp570
I75
s(S'(0.1878-0.2746]'
p571
S'(-inf-7.864]'
p572
I1
tp573
I5
s(g185
S'(12.968-18.072]'
p574
I1
tp575
I34
s(S'(0.3614-0.4482]'
p576
S'(18.072-23.176]'
p577
I0
tp578
I2
s(g217
S'(23.176-28.28]'
p579
I1
tp580
I2
s(S'(0.1878-0.2746]'
p581
S'(23.176-28.28]'
p582
I0
tp583
I48
s(S'(-inf-0.1878]'
p584
S'(12.968-18.072]'
p585
I0
tp586
I446
s(g372
S'(7.864-12.968]'
p587
I0
tp588
I224
s(S'(-inf-0.1878]'
p589
S'(-inf-7.864]'
p590
I1
tp591
I29
s(g33
S'(7.864-12.968]'
p592
I0
tp593
I1
s(S'(-inf-0.1878]'
p594
S'(18.072-23.176]'
p595
I1
tp596
I18
s(g51
S'(12.968-18.072]'
p597
I0
tp598
I1
s(g387
S'(7.864-12.968]'
p599
I0
tp600
I2
s(S'(-inf-0.1878]'
p601
S'(-inf-7.864]'
p602
I0
tp603
I73
s(g12
S'(12.968-18.072]'
p604
I0
tp605
I1
s(g279
S'(12.968-18.072]'
p606
I0
tp607
I15
s(g6
S'(7.864-12.968]'
p608
I1
tp609
I34
s(S'(0.1878-0.2746]'
p610
S'(33.384-38.488]'
p611
I0
tp612
I26
s(S'(0.1878-0.2746]'
p613
S'(28.28-33.384]'
p614
I1
tp615
I3
s(S'(-inf-0.1878]'
p616
S'(38.488-43.592]'
p617
I0
tp618
I32
s(g162
S'(33.384-38.488]'
p619
I0
tp620
I2
s(S'(0.1878-0.2746]'
p621
S'(28.28-33.384]'
p622
I0
tp623
I27
s(g24
S'(18.072-23.176]'
p624
I0
tp625
I7
s(g285
S'(43.592-48.696]'
p626
I1
tp627
I1
s(S'(-inf-0.1878]'
p628
S'(43.592-48.696]'
p629
I0
tp630
I23
s(g329
S'(23.176-28.28]'
p631
I0
tp632
I1
s(g152
S'(7.864-12.968]'
p633
I0
tp634
I12
s(S'(0.2746-0.3614]'
p635
S'(-inf-7.864]'
p636
I0
tp637
I1
s(S'(-inf-0.1878]'
p638
S'(28.28-33.384]'
p639
I1
tp640
I3
s(g423
S'(7.864-12.968]'
p641
I0
tp642
I5
s(g27
S'(18.072-23.176]'
p643
I0
tp644
I247
s(S'(-inf-0.1878]'
p645
S'(28.28-33.384]'
p646
I0
tp647
I83
s(g66
S'(18.072-23.176]'
p648
I0
tp649
I2
s(S'(0.1878-0.2746]'
p650
S'(43.592-48.696]'
p651
I0
tp652
I7
s(g30
S'(7.864-12.968]'
p653
I1
tp654
I2
s(g36
S'(12.968-18.072]'
p655
I0
tp656
I3
s(S'(0.2746-0.3614]'
p657
S'(48.696-inf)'
p658
I0
tp659
I1
s(S'(0.1878-0.2746]'
p660
S'(18.072-23.176]'
p661
I1
tp662
I14
s(g60
S'(7.864-12.968]'
p663
I1
tp664
I127
sa(dp665
(g30
S'(-inf-2.174]'
p666
I1
tp667
I2
s(S'(0.1878-0.2746]'
p668
S'(2.174-3.478]'
p669
I1
tp670
I5
s(S'(-inf-0.1878]'
p671
S'(3.478-4.782]'
p672
I0
tp673
I57
s(g24
S'(-inf-2.174]'
p674
I0
tp675
I37
s(g165
S'(3.478-4.782]'
p676
I1
tp677
I5
s(S'(-inf-0.1878]'
p678
S'(11.302-12.606]'
p679
I0
tp680
I1
s(S'(-inf-0.1878]'
p681
S'(6.086-7.39]'
p682
I1
tp683
I4
s(g27
S'(4.782-6.086]'
p684
I0
tp685
I39
s(S'(-inf-0.1878]'
p686
S'(6.086-7.39]'
p687
I0
tp688
I41
s(g584
S'(-inf-2.174]'
p689
I0
tp690
I1561
s(S'(-inf-0.1878]'
p691
S'(4.782-6.086]'
p692
I1
tp693
I2
s(S'(-inf-0.1878]'
p694
S'(9.998-11.302]'
p695
I0
tp696
I7
s(g387
S'(4.782-6.086]'
p697
I0
tp698
I1
s(g60
S'(-inf-2.174]'
p699
I1
tp700
I197
s(S'(0.1878-0.2746]'
p701
S'(4.782-6.086]'
p702
I0
tp703
I12
s(g66
S'(-inf-2.174]'
p704
I0
tp705
I2
s(g51
S'(-inf-2.174]'
p706
I0
tp707
I2
s(g6
S'(-inf-2.174]'
p708
I1
tp709
I66
s(g483
S'(3.478-4.782]'
p710
I0
tp711
I2
s(S'(0.1878-0.2746]'
p712
S'(9.998-11.302]'
p713
I0
tp714
I1
s(S'(0.1878-0.2746]'
p715
S'(6.086-7.39]'
p716
I0
tp717
I12
s(g48
S'(-inf-2.174]'
p718
I0
tp719
I592
s(g12
S'(2.174-3.478]'
p720
I0
tp721
I1
s(S'(0.1878-0.2746]'
p722
S'(7.39-8.694]'
p723
I0
tp724
I3
s(S'(-inf-0.1878]'
p725
S'(2.174-3.478]'
p726
I1
tp727
I11
s(S'(-inf-0.1878]'
p728
S'(2.174-3.478]'
p729
I0
tp730
I104
s(S'(0.2746-0.3614]'
p731
S'(4.782-6.086]'
p732
I0
tp733
I2
s(g36
S'(-inf-2.174]'
p734
I0
tp735
I11
s(g217
S'(3.478-4.782]'
p736
I1
tp737
I1
s(S'(0.1878-0.2746]'
p738
S'(12.606-inf)'
p739
I0
tp740
I1
s(S'(0.1878-0.2746]'
p741
S'(3.478-4.782]'
p742
I0
tp743
I18
s(g33
S'(-inf-2.174]'
p744
I0
tp745
I1
s(S'(-inf-0.1878]'
p746
S'(8.694-9.998]'
p747
I1
tp748
I1
s(S'(-inf-0.1878]'
p749
S'(7.39-8.694]'
p750
I0
tp751
I7
s(S'(-inf-0.1878]'
p752
S'(8.694-9.998]'
p753
I0
tp754
I3
s(S'(0.1878-0.2746]'
p755
S'(2.174-3.478]'
p756
I0
tp757
I32
sa(dp758
(g46
S'(1.7492-2.5633]'
p759
I0
tp760
I46
s(g61
g176
I1
tp761
I1
s(g73
S'(1.7492-2.5633]'
p762
I0
tp763
I1
s(g79
S'(2.5633-3.3774]'
p764
I0
tp765
I1
s(S'(0.5922-1.1844]'
p766
S'(2.5633-3.3774]'
p767
I0
tp768
I7
s(g7
g116
I1
tp769
I77
s(g70
S'(1.7492-2.5633]'
p770
I1
tp771
I1
s(S'(-inf-0.5922]'
p772
g111
I0
tp773
I1319
s(g76
S'(1.7492-2.5633]'
p774
I0
tp775
I1
s(g58
S'(1.7492-2.5633]'
p776
I1
tp777
I2
s(g49
g91
I0
tp778
I877
s(S'(1.7766-2.3688]'
p779
S'(1.7492-2.5633]'
p780
I0
tp781
I10
s(S'(-inf-0.5922]'
p782
g97
I1
tp783
I3
s(g16
S'(1.7492-2.5633]'
p784
I1
tp785
I1
s(S'(-inf-0.5922]'
p786
g121
I1
tp787
I3
s(S'(-inf-0.5922]'
p788
g150
I0
tp789
I111
s(S'(-inf-0.5922]'
p790
g166
I1
tp791
I155
s(g40
S'(1.7492-2.5633]'
p792
I0
tp793
I4
s(S'(-inf-0.5922]'
p794
g94
I1
tp795
I2
s(S'(-inf-0.5922]'
p796
g141
I0
tp797
I88
s(g4
S'(1.7492-2.5633]'
p798
I0
tp799
I20
s(g19
g118
I1
tp800
I46
s(S'(0.5922-1.1844]'
p801
S'(0.9351-1.7492]'
p802
I0
tp803
I1
s(S'(-inf-0.5922]'
p804
g105
I1
tp805
I2
s(S'(-inf-0.5922]'
p806
g102
I1
tp807
I1
s(S'(-inf-0.5922]'
p808
g108
I0
tp809
I64
sa(dp810
(g49
g225
I0
tp811
I1384
s(S'(-inf-0.5922]'
p812
g201
I1
tp813
I141
s(g64
S'(0.4074-0.8148]'
p814
I0
tp815
I34
s(S'(-inf-0.5922]'
p816
g196
I0
tp817
I964
s(S'(-inf-0.5922]'
p818
g254
I0
tp819
I1
s(g13
g223
I0
tp820
I7
s(g16
S'(0.8148-1.2222]'
p821
I1
tp822
I1
s(g19
g246
I1
tp823
I6
s(S'(-inf-0.5922]'
p824
g189
I1
tp825
I1
s(g61
g193
I1
tp826
I1
s(S'(1.1844-1.7766]'
p827
S'(0.8148-1.2222]'
p828
I0
tp829
I8
s(g40
S'(0.4074-0.8148]'
p830
I0
tp831
I3
s(g70
S'(0.8148-1.2222]'
p832
I1
tp833
I1
s(g779
S'(0.4074-0.8148]'
p834
I0
tp835
I5
s(g76
S'(0.8148-1.2222]'
p836
I0
tp837
I1
s(g4
S'(0.4074-0.8148]'
p838
I0
tp839
I12
s(S'(-inf-0.5922]'
p840
g221
I1
tp841
I2
s(g58
S'(0.8148-1.2222]'
p842
I1
tp843
I2
s(g79
S'(0.8148-1.2222]'
p844
I0
tp845
I6
s(S'(-inf-0.5922]'
p846
g180
I0
tp847
I10
s(g46
S'(0.8148-1.2222]'
p848
I0
tp849
I18
s(g73
S'(0.8148-1.2222]'
p850
I0
tp851
I1
s(g7
g236
I1
tp852
I72
s(S'(2.3688-2.961]'
p853
S'(0.8148-1.2222]'
p854
I0
tp855
I1
s(S'(-inf-0.5922]'
p856
g183
I0
tp857
I93
s(S'(0.5922-1.1844]'
p858
S'(1.2222-1.6296]'
p859
I0
tp860
I2
s(S'(-inf-0.5922]'
p861
S'(0.8148-1.2222]'
p862
I1
tp863
I58
s(S'(-inf-0.5922]'
p864
g251
I1
tp865
I9
sa(dp866
(S'(-inf-0.5922]'
p867
g404
I0
tp868
I392
s(g22
S'(78-93.5]'
p869
I0
tp870
I2
s(g73
S'(124.5-140]'
p871
I0
tp872
I1
s(g7
g302
I1
tp873
I35
s(S'(0.5922-1.1844]'
p874
S'(140-155.5]'
p875
I0
tp876
I1
s(S'(0.5922-1.1844]'
p877
S'(62.5-78]'
p878
I0
tp879
I13
s(S'(-inf-0.5922]'
p880
g315
I0
tp881
I507
s(g76
S'(62.5-78]'
p882
I0
tp883
I1
s(S'(-inf-0.5922]'
p884
S'(93.5-109]'
p885
I1
tp886
I15
s(S'(-inf-0.5922]'
p887
g421
I0
tp888
I222
s(S'(-inf-0.5922]'
p889
g401
I0
tp890
I180
s(S'(0.5922-1.1844]'
p891
S'(124.5-140]'
p892
I0
tp893
I1
s(S'(-inf-0.5922]'
p894
g340
I0
tp895
I276
s(S'(-inf-0.5922]'
p896
g286
I1
tp897
I20
s(S'(-inf-0.5922]'
p898
g320
I1
tp899
I135
s(S'(-inf-0.5922]'
p900
g291
I1
tp901
I6
s(S'(-inf-0.5922]'
p902
g385
I0
tp903
I7
s(S'(-inf-0.5922]'
p904
g298
I0
tp905
I399
s(S'(-inf-0.5922]'
p906
S'(109-124.5]'
p907
I1
tp908
I20
s(S'(1.1844-1.7766]'
p909
S'(109-124.5]'
p910
I0
tp911
I1
s(S'(-inf-0.5922]'
p912
g379
I0
tp913
I38
s(g46
S'(109-124.5]'
p914
I0
tp915
I10
s(g49
g322
I0
tp916
I215
s(S'(2.3688-2.961]'
p917
S'(62.5-78]'
p918
I0
tp919
I1
s(g4
S'(93.5-109]'
p920
I0
tp921
I7
s(g766
S'(93.5-109]'
p922
I0
tp923
I15
s(g79
S'(62.5-78]'
p924
I0
tp925
I7
s(S'(0.5922-1.1844]'
p926
S'(78-93.5]'
p927
I0
tp928
I8
s(S'(1.1844-1.7766]'
p929
S'(62.5-78]'
p930
I0
tp931
I8
s(S'(-inf-0.5922]'
p932
g407
I1
tp933
I39
s(S'(1.7766-2.3688]'
p934
S'(93.5-109]'
p935
I0
tp936
I1
s(g58
S'(78-93.5]'
p937
I1
tp938
I1
s(S'(0.5922-1.1844]'
p939
S'(31.5-47]'
p940
I0
tp941
I1
s(g55
S'(78-93.5]'
p942
I0
tp943
I2
s(g43
S'(124.5-140]'
p944
I0
tp945
I3
s(g70
S'(78-93.5]'
p946
I1
tp947
I1
s(g779
S'(109-124.5]'
p948
I0
tp949
I1
s(S'(0.5922-1.1844]'
p950
S'(47-62.5]'
p951
I0
tp952
I5
s(S'(-inf-0.5922]'
p953
g275
I0
tp954
I223
s(S'(1.1844-1.7766]'
p955
S'(47-62.5]'
p956
I0
tp957
I1
s(g61
g269
I1
tp958
I1
s(S'(1.7766-2.3688]'
p959
S'(62.5-78]'
p960
I1
tp961
I1
s(g16
g300
I1
tp962
I1
s(g794
g367
I1
tp963
I19
s(g40
S'(124.5-140]'
p964
I0
tp965
I1
sa(dp966
(S'(-inf-0.5922]'
p967
g492
I0
tp968
I69
s(S'(-inf-0.5922]'
p969
g521
I0
tp970
I30
s(g22
S'(47.44-48.706]'
p971
I0
tp972
I1
s(g926
S'(52.504-inf)'
p973
I0
tp974
I5
s(g853
S'(48.706-49.972]'
p975
I0
tp976
I2
s(S'(-inf-0.5922]'
p977
g472
I0
tp978
I1
s(g73
S'(51.238-52.504]'
p979
I0
tp980
I1
s(g61
g481
I1
tp981
I1
s(g7
g457
I1
tp982
I28
s(S'(1.1844-1.7766]'
p983
S'(48.706-49.972]'
p984
I0
tp985
I7
s(S'(0.5922-1.1844]'
p986
S'(46.174-47.44]'
p987
I0
tp988
I1
s(S'(-inf-0.5922]'
p989
g450
I0
tp990
I467
s(g79
S'(51.238-52.504]'
p991
I0
tp992
I2
s(S'(1.1844-1.7766]'
p993
g467
I0
tp994
I3
s(S'(-inf-0.5922]'
p995
g430
I0
tp996
I15
s(S'(-inf-0.5922]'
p997
g433
I0
tp998
I4
s(S'(-inf-0.5922]'
p999
S'(49.972-51.238]'
p1000
I1
tp1001
I5
s(S'(1.7766-2.3688]'
p1002
S'(46.174-47.44]'
p1003
I0
tp1004
I1
s(S'(-inf-0.5922]'
p1005
g536
I1
tp1006
I25
s(S'(0.5922-1.1844]'
p1007
S'(48.706-49.972]'
p1008
I0
tp1009
I15
s(S'(-inf-0.5922]'
p1010
S'(48.706-49.972]'
p1011
I1
tp1012
I206
s(g40
S'(51.238-52.504]'
p1013
I0
tp1014
I1
s(g49
g503
I0
tp1015
I721
s(g46
S'(51.238-52.504]'
p1016
I0
tp1017
I27
s(S'(1.1844-1.7766]'
p1018
S'(52.504-inf)'
p1019
I0
tp1020
I1
s(g70
g518
I1
tp1021
I1
s(g840
S'(51.238-52.504]'
p1022
I1
tp1023
I25
s(S'(-inf-0.5922]'
p1024
g527
I0
tp1025
I718
s(g874
S'(49.972-51.238]'
p1026
I0
tp1027
I1
s(g55
S'(47.44-48.706]'
p1028
I0
tp1029
I3
s(g4
S'(51.238-52.504]'
p1030
I0
tp1031
I9
s(S'(1.7766-2.3688]'
p1032
S'(48.706-49.972]'
p1033
I0
tp1034
I5
s(g58
S'(48.706-49.972]'
p1035
I1
tp1036
I2
s(g76
S'(47.44-48.706]'
p1037
I0
tp1038
I1
s(S'(0.5922-1.1844]'
p1039
S'(47.44-48.706]'
p1040
I0
tp1041
I5
s(S'(-inf-0.5922]'
p1042
S'(47.44-48.706]'
p1043
I0
tp1044
I434
s(g16
g444
I1
tp1045
I1
sa(dp1046
(S'(-inf-0.5922]'
p1047
g639
I1
tp1048
I6
s(g76
S'(28.28-33.384]'
p1049
I0
tp1050
I1
s(g906
g574
I1
tp1051
I46
s(S'(-inf-0.5922]'
p1052
g646
I0
tp1053
I103
s(g877
S'(12.968-18.072]'
p1054
I0
tp1055
I8
s(g894
g550
I0
tp1056
I632
s(g16
S'(7.864-12.968]'
p1057
I1
tp1058
I1
s(g1018
S'(28.28-33.384]'
p1059
I0
tp1060
I3
s(g896
g626
I1
tp1061
I1
s(g22
S'(12.968-18.072]'
p1062
I0
tp1063
I3
s(S'(-inf-0.5922]'
p1064
g629
I0
tp1065
I30
s(S'(0.5922-1.1844]'
p1066
S'(28.28-33.384]'
p1067
I0
tp1068
I1
s(S'(1.1844-1.7766]'
p1069
S'(7.864-12.968]'
p1070
I0
tp1071
I1
s(S'(-inf-0.5922]'
p1072
g579
I1
tp1073
I10
s(S'(-inf-0.5922]'
p1074
g563
I0
tp1075
I39
s(g4
g552
I0
tp1076
I3
s(S'(0.5922-1.1844]'
p1077
S'(23.176-28.28]'
p1078
I0
tp1079
I5
s(S'(-inf-0.5922]'
p1080
g582
I0
tp1081
I150
s(g70
S'(7.864-12.968]'
p1082
I1
tp1083
I1
s(g58
S'(12.968-18.072]'
p1084
I1
tp1085
I2
s(g61
g663
I1
tp1086
I1
s(S'(-inf-0.5922]'
p1087
g590
I1
tp1088
I34
s(g79
S'(12.968-18.072]'
p1089
I0
tp1090
I4
s(S'(1.1844-1.7766]'
p1091
S'(33.384-38.488]'
p1092
I0
tp1093
I1
s(S'(-inf-0.5922]'
p1094
g566
I0
tp1095
I100
s(g43
S'(18.072-23.176]'
p1096
I0
tp1097
I6
s(g1002
S'(23.176-28.28]'
p1098
I0
tp1099
I1
s(S'(1.7766-2.3688]'
p1100
S'(18.072-23.176]'
p1101
I0
tp1102
I1
s(g993
S'(12.968-18.072]'
p1103
I0
tp1104
I5
s(g40
S'(23.176-28.28]'
p1105
I0
tp1106
I1
s(S'(-inf-0.5922]'
p1107
g555
I0
tp1108
I12
s(S'(1.1844-1.7766]'
p1109
g602
I0
tp1110
I1
s(S'(-inf-0.5922]'
p1111
g569
I0
tp1112
I98
s(S'(0.5922-1.1844]'
p1113
S'(-inf-7.864]'
p1114
I0
tp1115
I2
s(g55
S'(7.864-12.968]'
p1116
I0
tp1117
I3
s(g7
g608
I1
tp1118
I160
s(g766
S'(7.864-12.968]'
p1119
I0
tp1120
I18
s(S'(-inf-0.5922]'
p1121
g545
I0
tp1122
I942
s(g49
g542
I0
tp1123
I353
s(g779
S'(28.28-33.384]'
p1124
I0
tp1125
I2
s(g46
S'(18.072-23.176]'
p1126
I0
tp1127
I16
s(g73
S'(23.176-28.28]'
p1128
I0
tp1129
I1
s(g858
S'(33.384-38.488]'
p1130
I0
tp1131
I4
s(S'(-inf-0.5922]'
p1132
g661
I1
tp1133
I32
sa(dp1134
(S'(-inf-0.5922]'
p1135
g753
I0
tp1136
I3
s(g790
g676
I1
tp1137
I6
s(g40
S'(-inf-2.174]'
p1138
I0
tp1139
I4
s(g16
S'(-inf-2.174]'
p1140
I1
tp1141
I1
s(S'(1.7766-2.3688]'
p1142
S'(2.174-3.478]'
p1143
I0
tp1144
I1
s(S'(-inf-0.5922]'
p1145
g672
I0
tp1146
I76
s(S'(0.5922-1.1844]'
p1147
S'(3.478-4.782]'
p1148
I0
tp1149
I1
s(g79
S'(4.782-6.086]'
p1150
I0
tp1151
I1
s(g877
S'(2.174-3.478]'
p1152
I0
tp1153
I7
s(g76
S'(-inf-2.174]'
p1154
I0
tp1155
I1
s(g49
g718
I0
tp1156
I2129
s(g70
S'(-inf-2.174]'
p1157
I1
tp1158
I1
s(g7
g708
I1
tp1159
I260
s(S'(-inf-0.5922]'
p1160
g682
I1
tp1161
I4
s(g779
S'(-inf-2.174]'
p1162
I0
tp1163
I9
s(g73
S'(-inf-2.174]'
p1164
I0
tp1165
I1
s(S'(-inf-0.5922]'
p1166
g669
I1
tp1167
I16
s(S'(-inf-0.5922]'
p1168
g716
I0
tp1169
I53
s(S'(-inf-0.5922]'
p1170
g756
I0
tp1171
I127
s(S'(-inf-0.5922]'
p1172
g679
I0
tp1173
I1
s(g61
g699
I1
tp1174
I1
s(g46
S'(-inf-2.174]'
p1175
I0
tp1176
I45
s(g58
S'(-inf-2.174]'
p1177
I1
tp1178
I2
s(S'(-inf-0.5922]'
p1179
g747
I1
tp1180
I1
s(g1091
S'(4.782-6.086]'
p1181
I0
tp1182
I1
s(S'(-inf-0.5922]'
p1183
g713
I0
tp1184
I8
s(g4
S'(-inf-2.174]'
p1185
I0
tp1186
I17
s(S'(0.5922-1.1844]'
p1187
S'(4.782-6.086]'
p1188
I0
tp1189
I1
s(g28
g684
I0
tp1190
I51
s(S'(1.1844-1.7766]'
p1191
S'(2.174-3.478]'
p1192
I0
tp1193
I2
s(S'(-inf-0.5922]'
p1194
g739
I0
tp1195
I1
s(S'(-inf-0.5922]'
p1196
g723
I0
tp1197
I10
s(S'(-inf-0.5922]'
p1198
g692
I1
tp1199
I2
sa(dp1200
(S'(1.7492-2.5633]'
p1201
g254
I0
tp1202
I1
s(g169
S'(0.8148-1.2222]'
p1203
I0
tp1204
I28
s(S'(2.5633-3.3774]'
p1205
S'(-inf-0.4074]'
p1206
I1
tp1207
I14
s(S'(3.3774-4.1915]'
p1208
S'(1.2222-1.6296]'
p1209
I0
tp1210
I1
s(g102
S'(0.8148-1.2222]'
p1211
I1
tp1212
I1
s(S'(3.3774-4.1915]'
p1213
S'(1.2222-1.6296]'
p1214
I1
tp1215
I1
s(g111
S'(0.8148-1.2222]'
p1216
I0
tp1217
I833
s(S'(1.7492-2.5633]'
p1218
g213
I0
tp1219
I1
s(S'(2.5633-3.3774]'
p1220
g183
I0
tp1221
I31
s(S'(1.7492-2.5633]'
p1222
g207
I1
tp1223
I5
s(g118
g246
I1
tp1224
I1
s(S'(3.3774-4.1915]'
p1225
S'(-inf-0.4074]'
p1226
I1
tp1227
I6
s(g129
S'(0.4074-0.8148]'
p1228
I0
tp1229
I51
s(g166
S'(0.8148-1.2222]'
p1230
I1
tp1231
I33
s(g131
g223
I0
tp1232
I6
s(g156
S'(0.8148-1.2222]'
p1233
I1
tp1234
I1
s(S'(1.7492-2.5633]'
p1235
g814
I0
tp1236
I496
s(S'(1.7492-2.5633]'
p1237
S'(1.2222-1.6296]'
p1238
I0
tp1239
I63
s(S'(0.9351-1.7492]'
p1240
g189
I1
tp1241
I1
s(g105
S'(0.4074-0.8148]'
p1242
I1
tp1243
I1
s(S'(1.7492-2.5633]'
p1244
g251
I1
tp1245
I8
s(g91
g225
I0
tp1246
I516
s(g121
S'(0.8148-1.2222]'
p1247
I1
tp1248
I3
s(S'(2.5633-3.3774]'
p1249
S'(0.8148-1.2222]'
p1250
I1
tp1251
I7
s(g150
S'(0.8148-1.2222]'
p1252
I0
tp1253
I29
s(S'(1.7492-2.5633]'
p1254
g180
I0
tp1255
I7
s(g94
S'(0.8148-1.2222]'
p1256
I1
tp1257
I1
s(g97
S'(0.8148-1.2222]'
p1258
I1
tp1259
I2
s(S'(2.5633-3.3774]'
p1260
g196
I0
tp1261
I329
s(g116
g236
I1
tp1262
I52
s(S'(1.7492-2.5633]'
p1263
g221
I1
tp1264
I2
s(g176
g193
I1
tp1265
I15
s(S'(2.5633-3.3774]'
p1266
g204
I1
tp1267
I24
s(g89
S'(0.4074-0.8148]'
p1268
I0
tp1269
I83
s(g141
S'(0.4074-0.8148]'
p1270
I0
tp1271
I59
s(S'(2.5633-3.3774]'
p1272
S'(-inf-0.4074]'
p1273
I0
tp1274
I3
s(g108
S'(0.8148-1.2222]'
p1275
I0
tp1276
I13
s(S'(5.8197-6.6338]'
p1277
S'(0.4074-0.8148]'
p1278
I1
tp1279
I1
s(S'(3.3774-4.1915]'
p1280
g201
I1
tp1281
I115
sa(dp1282
(S'(3.3774-4.1915]'
p1283
g407
I1
tp1284
I26
s(S'(3.3774-4.1915]'
p1285
S'(47-62.5]'
p1286
I1
tp1287
I7
s(S'(3.3774-4.1915]'
p1288
S'(47-62.5]'
p1289
I0
tp1290
I10
s(S'(0.9351-1.7492]'
p1291
S'(109-124.5]'
p1292
I0
tp1293
I1
s(S'(1.7492-2.5633]'
p1294
g385
I0
tp1295
I7
s(g91
g322
I0
tp1296
I19
s(S'(1.7492-2.5633]'
p1297
g379
I0
tp1298
I39
s(S'(1.7492-2.5633]'
p1299
S'(47-62.5]'
p1300
I1
tp1301
I5
s(S'(1.7492-2.5633]'
p1302
S'(31.5-47]'
p1303
I1
tp1304
I1
s(S'(2.5633-3.3774]'
p1305
g320
I1
tp1306
I20
s(g1205
S'(109-124.5]'
p1307
I1
tp1308
I3
s(S'(2.5633-3.3774]'
p1309
g298
I0
tp1310
I163
s(g121
S'(-inf-31.5]'
p1311
I1
tp1312
I2
s(S'(2.5633-3.3774]'
p1313
g421
I0
tp1314
I110
s(g176
g269
I1
tp1315
I18
s(S'(2.5633-3.3774]'
p1316
g340
I0
tp1317
I80
s(S'(1.7492-2.5633]'
p1318
g401
I0
tp1319
I186
s(g111
S'(109-124.5]'
p1320
I0
tp1321
I207
s(S'(1.7492-2.5633]'
p1322
S'(78-93.5]'
p1323
I1
tp1324
I21
s(S'(1.7492-2.5633]'
p1325
g291
I1
tp1326
I4
s(S'(1.7492-2.5633]'
p1327
S'(78-93.5]'
p1328
I0
tp1329
I237
s(g784
g300
I1
tp1330
I14
s(S'(1.7492-2.5633]'
p1331
S'(93.5-109]'
p1332
I0
tp1333
I217
s(S'(-inf-0.9351]'
p1334
S'(78-93.5]'
p1335
I0
tp1336
I1
s(S'(2.5633-3.3774]'
p1337
g391
I1
tp1338
I2
s(S'(-inf-0.9351]'
p1339
S'(62.5-78]'
p1340
I0
tp1341
I29
s(g116
g302
I1
tp1342
I19
s(S'(1.7492-2.5633]'
p1343
S'(-inf-31.5]'
p1344
I0
tp1345
I64
s(S'(1.7492-2.5633]'
p1346
S'(31.5-47]'
p1347
I0
tp1348
I53
s(S'(2.5633-3.3774]'
p1349
g275
I0
tp1350
I158
s(S'(1.7492-2.5633]'
p1351
S'(62.5-78]'
p1352
I0
tp1353
I231
s(g102
S'(-inf-31.5]'
p1354
I1
tp1355
I1
s(g141
S'(78-93.5]'
p1356
I0
tp1357
I4
s(S'(0.9351-1.7492]'
p1358
S'(78-93.5]'
p1359
I0
tp1360
I6
s(g105
S'(62.5-78]'
p1361
I1
tp1362
I2
s(g97
S'(62.5-78]'
p1363
I1
tp1364
I2
s(S'(3.3774-4.1915]'
p1365
g286
I1
tp1366
I1
s(S'(0.9351-1.7492]'
p1367
S'(47-62.5]'
p1368
I0
tp1369
I40
s(g108
S'(47-62.5]'
p1370
I0
tp1371
I34
s(S'(3.3774-4.1915]'
p1372
S'(93.5-109]'
p1373
I1
tp1374
I2
s(g94
g367
I1
tp1375
I1
s(S'(2.5633-3.3774]'
p1376
g404
I0
tp1377
I154
s(S'(4.1915-5.0056]'
p1378
S'(31.5-47]'
p1379
I1
tp1380
I1
s(S'(3.3774-4.1915]'
p1381
S'(93.5-109]'
p1382
I0
tp1383
I2
s(S'(2.5633-3.3774]'
p1384
g315
I0
tp1385
I201
s(g1266
S'(47-62.5]'
p1386
I1
tp1387
I5
s(g166
S'(62.5-78]'
p1388
I1
tp1389
I7
s(S'(2.5633-3.3774]'
p1390
g376
I1
tp1391
I11
s(S'(3.3774-4.1915]'
p1392
S'(31.5-47]'
p1393
I0
tp1394
I13
s(g118
g308
I1
tp1395
I5
s(g150
S'(62.5-78]'
p1396
I0
tp1397
I65
s(S'(3.3774-4.1915]'
p1398
S'(62.5-78]'
p1399
I0
tp1400
I11
s(g1277
S'(47-62.5]'
p1401
I1
tp1402
I1
s(S'(1.7492-2.5633]'
p1403
S'(47-62.5]'
p1404
I0
tp1405
I160
s(S'(3.3774-4.1915]'
p1406
S'(-inf-31.5]'
p1407
I0
tp1408
I48
s(S'(3.3774-4.1915]'
p1409
S'(-inf-31.5]'
p1410
I1
tp1411
I112
s(g1240
S'(62.5-78]'
p1412
I1
tp1413
I1
sa(dp1414
(g94
S'(52.504-inf)'
p1415
I1
tp1416
I1
s(S'(2.5633-3.3774]'
p1417
g536
I1
tp1418
I6
s(g91
g503
I0
tp1419
I233
s(S'(2.5633-3.3774]'
p1420
S'(47.44-48.706]'
p1421
I0
tp1422
I163
s(g770
g518
I1
tp1423
I36
s(g105
S'(48.706-49.972]'
p1424
I1
tp1425
I2
s(S'(1.7492-2.5633]'
p1426
g527
I0
tp1427
I407
s(g1406
S'(47.44-48.706]'
p1428
I0
tp1429
I18
s(S'(3.3774-4.1915]'
p1430
S'(51.238-52.504]'
p1431
I1
tp1432
I1
s(g1409
S'(47.44-48.706]'
p1433
I1
tp1434
I14
s(g1283
S'(48.706-49.972]'
p1435
I1
tp1436
I135
s(S'(3.3774-4.1915]'
p1437
S'(48.706-49.972]'
p1438
I0
tp1439
I63
s(S'(2.5633-3.3774]'
p1440
g430
I0
tp1441
I11
s(S'(1.7492-2.5633]'
p1442
g467
I0
tp1443
I265
s(S'(1.7492-2.5633]'
p1444
g501
I1
tp1445
I5
s(S'(1.7492-2.5633]'
p1446
g512
I0
tp1447
I4
s(g1240
S'(48.706-49.972]'
p1448
I1
tp1449
I1
s(S'(2.5633-3.3774]'
p1450
S'(48.706-49.972]'
p1451
I0
tp1452
I277
s(g121
S'(48.706-49.972]'
p1453
I1
tp1454
I3
s(g141
S'(51.238-52.504]'
p1455
I0
tp1456
I4
s(S'(2.5633-3.3774]'
p1457
g1011
I1
tp1458
I28
s(g108
S'(52.504-inf)'
p1459
I0
tp1460
I21
s(g116
g457
I1
tp1461
I19
s(g97
S'(48.706-49.972]'
p1462
I1
tp1463
I3
s(S'(1.7492-2.5633]'
p1464
g450
I0
tp1465
I237
s(S'(2.5633-3.3774]'
p1466
g433
I0
tp1467
I3
s(g1334
S'(47.44-48.706]'
p1468
I0
tp1469
I1
s(S'(1.7492-2.5633]'
p1470
g521
I0
tp1471
I32
s(g166
S'(52.504-inf)'
p1472
I1
tp1473
I5
s(S'(2.5633-3.3774]'
p1474
g492
I0
tp1475
I2
s(g1398
S'(52.504-inf)'
p1476
I0
tp1477
I3
s(S'(1.7492-2.5633]'
p1478
g472
I0
tp1479
I1
s(g176
g481
I1
tp1480
I6
s(g111
S'(51.238-52.504]'
p1481
I0
tp1482
I386
s(S'(2.5633-3.3774]'
p1483
S'(52.504-inf)'
p1484
I0
tp1485
I196
s(S'(1.7492-2.5633]'
p1486
S'(49.972-51.238]'
p1487
I0
tp1488
I68
s(S'(1.7492-2.5633]'
p1489
S'(44.908-46.174]'
p1490
I0
tp1491
I1
s(g784
g444
I1
tp1492
I16
s(S'(-inf-0.9351]'
p1493
S'(51.238-52.504]'
p1494
I0
tp1495
I42
s(g102
S'(48.706-49.972]'
p1496
I1
tp1497
I1
s(g118
g531
I1
tp1498
I3
s(g150
S'(52.504-inf)'
p1499
I0
tp1500
I16
s(S'(0.9351-1.7492]'
p1501
S'(51.238-52.504]'
p1502
I0
tp1503
I96
s(g83
S'(51.238-52.504]'
p1504
I1
tp1505
I9
sa(dp1506
(S'(0.9351-1.7492]'
p1507
S'(28.28-33.384]'
p1508
I0
tp1509
I8
s(S'(-inf-0.9351]'
p1510
S'(33.384-38.488]'
p1511
I0
tp1512
I12
s(S'(3.3774-4.1915]'
p1513
S'(-inf-7.864]'
p1514
I0
tp1515
I17
s(g102
S'(12.968-18.072]'
p1516
I1
tp1517
I1
s(S'(0.9351-1.7492]'
p1518
S'(23.176-28.28]'
p1519
I0
tp1520
I9
s(g121
S'(12.968-18.072]'
p1521
I1
tp1522
I1
s(g1493
S'(23.176-28.28]'
p1523
I0
tp1524
I5
s(S'(2.5633-3.3774]'
p1525
S'(23.176-28.28]'
p1526
I0
tp1527
I20
s(S'(1.7492-2.5633]'
p1528
g566
I0
tp1529
I22
s(g1457
g540
I1
tp1530
I5
s(S'(-inf-0.9351]'
p1531
S'(7.864-12.968]'
p1532
I0
tp1533
I19
s(g1398
S'(18.072-23.176]'
p1534
I0
tp1535
I9
s(S'(1.7492-2.5633]'
p1536
g579
I1
tp1537
I1
s(S'(0.9351-1.7492]'
p1538
S'(18.072-23.176]'
p1539
I0
tp1540
I19
s(g1365
g626
I1
tp1541
I1
s(S'(0.9351-1.7492]'
p1542
S'(38.488-43.592]'
p1543
I0
tp1544
I7
s(S'(3.3774-4.1915]'
p1545
S'(18.072-23.176]'
p1546
I1
tp1547
I22
s(S'(1.7492-2.5633]'
p1548
g582
I0
tp1549
I127
s(g91
g542
I0
tp1550
I118
s(S'(2.5633-3.3774]'
p1551
S'(38.488-43.592]'
p1552
I0
tp1553
I10
s(g105
S'(7.864-12.968]'
p1554
I1
tp1555
I2
s(g108
S'(12.968-18.072]'
p1556
I0
tp1557
I15
s(S'(2.5633-3.3774]'
p1558
g629
I0
tp1559
I9
s(g1409
S'(28.28-33.384]'
p1560
I1
tp1561
I1
s(S'(2.5633-3.3774]'
p1562
g590
I1
tp1563
I2
s(S'(0.9351-1.7492]'
p1564
S'(-inf-7.864]'
p1565
I0
tp1566
I2
s(S'(1.7492-2.5633]'
p1567
S'(43.592-48.696]'
p1568
I0
tp1569
I19
s(S'(2.5633-3.3774]'
p1570
S'(-inf-7.864]'
p1571
I0
tp1572
I62
s(S'(-inf-0.9351]'
p1573
S'(43.592-48.696]'
p1574
I0
tp1575
I1
s(S'(1.7492-2.5633]'
p1576
g574
I1
tp1577
I17
s(S'(2.5633-3.3774]'
p1578
g545
I0
tp1579
I399
s(S'(1.7492-2.5633]'
p1580
g639
I1
tp1581
I5
s(S'(1.7492-2.5633]'
p1582
g563
I0
tp1583
I18
s(g166
S'(7.864-12.968]'
p1584
I1
tp1585
I79
s(g1318
S'(12.968-18.072]'
p1586
I0
tp1587
I381
s(S'(1.7492-2.5633]'
p1588
S'(18.072-23.176]'
p1589
I0
tp1590
I225
s(g118
S'(7.864-12.968]'
p1591
I1
tp1592
I27
s(S'(0.9351-1.7492]'
p1593
S'(7.864-12.968]'
p1594
I0
tp1595
I44
s(S'(1.7492-2.5633]'
p1596
g646
I0
tp1597
I83
s(S'(-inf-0.9351]'
p1598
S'(38.488-43.592]'
p1599
I0
tp1600
I4
s(S'(1.7492-2.5633]'
p1601
g661
I1
tp1602
I9
s(S'(-inf-0.9351]'
p1603
S'(18.072-23.176]'
p1604
I0
tp1605
I5
s(S'(3.3774-4.1915]'
p1606
S'(23.176-28.28]'
p1607
I1
tp1608
I4
s(g1367
S'(33.384-38.488]'
p1609
I0
tp1610
I9
s(g97
S'(7.864-12.968]'
p1611
I1
tp1612
I3
s(g1288
S'(7.864-12.968]'
p1613
I0
tp1614
I42
s(g176
g663
I1
tp1615
I50
s(S'(2.5633-3.3774]'
p1616
g611
I0
tp1617
I22
s(g111
S'(7.864-12.968]'
p1618
I0
tp1619
I460
s(g1378
S'(7.864-12.968]'
p1620
I1
tp1621
I2
s(g150
S'(12.968-18.072]'
p1622
I0
tp1623
I14
s(S'(-inf-0.9351]'
p1624
S'(28.28-33.384]'
p1625
I0
tp1626
I3
s(S'(1.7492-2.5633]'
p1627
S'(48.696-inf)'
p1628
I0
tp1629
I6
s(g94
S'(12.968-18.072]'
p1630
I1
tp1631
I2
s(g1316
g550
I0
tp1632
I223
s(g1280
g557
I1
tp1633
I16
s(g1305
S'(18.072-23.176]'
p1634
I1
tp1635
I1
s(g1266
S'(12.968-18.072]'
p1636
I1
tp1637
I11
s(S'(3.3774-4.1915]'
p1638
S'(43.592-48.696]'
p1639
I0
tp1640
I1
s(g141
S'(12.968-18.072]'
p1641
I0
tp1642
I19
s(S'(2.5633-3.3774]'
p1643
S'(28.28-33.384]'
p1644
I0
tp1645
I16
s(S'(1.7492-2.5633]'
p1646
g569
I0
tp1647
I60
s(S'(2.5633-3.3774]'
p1648
g555
I0
tp1649
I6
s(S'(3.3774-4.1915]'
p1650
S'(-inf-7.864]'
p1651
I1
tp1652
I32
sa(dp1653
(g1249
g692
I1
tp1654
I1
s(S'(2.5633-3.3774]'
p1655
g753
I0
tp1656
I3
s(S'(3.3774-4.1915]'
p1657
S'(2.174-3.478]'
p1658
I0
tp1659
I6
s(g123
g684
I0
tp1660
I34
s(S'(2.5633-3.3774]'
p1661
g739
I0
tp1662
I1
s(g108
S'(-inf-2.174]'
p1663
I0
tp1664
I64
s(S'(2.5633-3.3774]'
p1665
g713
I0
tp1666
I7
s(S'(2.5633-3.3774]'
p1667
g729
I0
tp1668
I58
s(g102
S'(-inf-2.174]'
p1669
I1
tp1670
I1
s(S'(2.5633-3.3774]'
p1671
g679
I0
tp1672
I1
s(g1205
S'(2.174-3.478]'
p1673
I1
tp1674
I4
s(S'(2.5633-3.3774]'
p1675
g723
I0
tp1676
I9
s(S'(2.5633-3.3774]'
p1677
g716
I0
tp1678
I40
s(S'(1.7492-2.5633]'
p1679
S'(3.478-4.782]'
p1680
I0
tp1681
I19
s(S'(2.5633-3.3774]'
p1682
S'(6.086-7.39]'
p1683
I1
tp1684
I1
s(S'(1.7492-2.5633]'
p1685
g669
I1
tp1686
I4
s(g1536
g736
I1
tp1687
I1
s(g1277
S'(3.478-4.782]'
p1688
I1
tp1689
I1
s(S'(1.7492-2.5633]'
p1690
g756
I0
tp1691
I73
s(g1446
S'(4.782-6.086]'
p1692
I0
tp1693
I18
s(S'(1.7492-2.5633]'
p1694
S'(6.086-7.39]'
p1695
I0
tp1696
I12
s(S'(3.3774-4.1915]'
p1697
S'(3.478-4.782]'
p1698
I0
tp1699
I6
s(S'(1.7492-2.5633]'
p1700
S'(9.998-11.302]'
p1701
I0
tp1702
I1
s(g166
g676
I1
tp1703
I4
s(S'(3.3774-4.1915]'
p1704
g682
I1
tp1705
I3
s(S'(2.5633-3.3774]'
p1706
g672
I0
tp1707
I52
s(g97
S'(-inf-2.174]'
p1708
I1
tp1709
I1
s(S'(3.3774-4.1915]'
p1710
S'(6.086-7.39]'
p1711
I0
tp1712
I1
s(S'(1.7492-2.5633]'
p1713
S'(7.39-8.694]'
p1714
I0
tp1715
I1
s(S'(5.8197-6.6338]'
p1716
g747
I1
tp1717
I1
s(g118
S'(-inf-2.174]'
p1718
I1
tp1719
I40
s(g121
S'(-inf-2.174]'
p1720
I1
tp1721
I3
s(g91
g718
I0
tp1722
I680
s(g94
S'(-inf-2.174]'
p1723
I1
tp1724
I2
s(g150
S'(-inf-2.174]'
p1725
I0
tp1726
I112
s(g169
S'(4.782-6.086]'
p1727
I0
tp1728
I2
s(g141
S'(-inf-2.174]'
p1729
I0
tp1730
I73
s(S'(3.3774-4.1915]'
p1731
S'(4.782-6.086]'
p1732
I1
tp1733
I1
s(g147
S'(-inf-2.174]'
p1734
I1
tp1735
I139
s(g111
S'(-inf-2.174]'
p1736
I0
tp1737
I1277
s(g105
S'(-inf-2.174]'
p1738
I1
tp1739
I2
s(S'(3.3774-4.1915]'
p1740
S'(2.174-3.478]'
p1741
I1
tp1742
I8
s(g176
g699
I1
tp1743
I77
sa(dp1744
(g193
g269
I1
tp1745
I2
s(S'(-inf-0.4074]'
p1746
g291
I1
tp1747
I4
s(S'(-inf-0.4074]'
p1748
g1323
I1
tp1749
I12
s(g183
S'(62.5-78]'
p1750
I0
tp1751
I16
s(S'(0.4074-0.8148]'
p1752
S'(78-93.5]'
p1753
I0
tp1754
I143
s(g225
g322
I0
tp1755
I170
s(g239
S'(62.5-78]'
p1756
I0
tp1757
I3
s(g186
g907
I1
tp1758
I16
s(S'(0.8148-1.2222]'
p1759
g298
I0
tp1760
I253
s(g821
g300
I1
tp1761
I2
s(g204
g1386
I1
tp1762
I7
s(g201
S'(62.5-78]'
p1763
I1
tp1764
I4
s(S'(0.8148-1.2222]'
p1765
g340
I0
tp1766
I201
s(S'(1.2222-1.6296]'
p1767
g1328
I0
tp1768
I14
s(g210
S'(62.5-78]'
p1769
I0
tp1770
I251
s(g1250
S'(62.5-78]'
p1771
I1
tp1772
I14
s(S'(1.6296-2.037]'
p1773
S'(47-62.5]'
p1774
I0
tp1775
I1
s(S'(0.4074-0.8148]'
p1776
g404
I0
tp1777
I207
s(g1238
S'(93.5-109]'
p1778
I0
tp1779
I10
s(g221
S'(93.5-109]'
p1780
I1
tp1781
I2
s(S'(0.8148-1.2222]'
p1782
g315
I0
tp1783
I266
s(S'(0.4074-0.8148]'
p1784
g407
I1
tp1785
I29
s(S'(0.8148-1.2222]'
p1786
g320
I1
tp1787
I25
s(S'(1.2222-1.6296]'
p1788
S'(124.5-140]'
p1789
I1
tp1790
I1
s(S'(0.8148-1.2222]'
p1791
g421
I0
tp1792
I76
s(S'(1.2222-1.6296]'
p1793
S'(78-93.5]'
p1794
I1
tp1795
I1
s(S'(1.2222-1.6296]'
p1796
S'(109-124.5]'
p1797
I0
tp1798
I14
s(g832
g946
I1
tp1799
I8
s(S'(1.2222-1.6296]'
p1800
S'(140-155.5]'
p1801
I0
tp1802
I1
s(S'(-inf-0.4074]'
p1803
S'(31.5-47]'
p1804
I0
tp1805
I4
s(g236
g302
I1
tp1806
I10
s(S'(0.4074-0.8148]'
p1807
S'(31.5-47]'
p1808
I0
tp1809
I109
s(S'(0.4074-0.8148]'
p1810
S'(140-155.5]'
p1811
I0
tp1812
I3
s(S'(-inf-0.4074]'
p1813
S'(47-62.5]'
p1814
I1
tp1815
I5
s(S'(0.8148-1.2222]'
p1816
g376
I1
tp1817
I6
s(S'(1.2222-1.6296]'
p1818
S'(62.5-78]'
p1819
I1
tp1820
I4
s(S'(1.2222-1.6296]'
p1821
S'(-inf-31.5]'
p1822
I0
tp1823
I2
s(S'(0.8148-1.2222]'
p1824
S'(124.5-140]'
p1825
I1
tp1826
I1
s(S'(0.8148-1.2222]'
p1827
g385
I0
tp1828
I7
s(g251
S'(109-124.5]'
p1829
I1
tp1830
I1
s(S'(1.2222-1.6296]'
p1831
S'(31.5-47]'
p1832
I0
tp1833
I4
s(g1256
g367
I1
tp1834
I5
s(S'(1.2222-1.6296]'
p1835
S'(124.5-140]'
p1836
I0
tp1837
I20
s(S'(1.6296-2.037]'
p1838
S'(78-93.5]'
p1839
I0
tp1840
I1
s(S'(0.8148-1.2222]'
p1841
g413
I0
tp1842
I176
s(g1226
S'(-inf-31.5]'
p1843
I1
tp1844
I11
s(g246
g308
I1
tp1845
I3
s(g223
g317
I0
tp1846
I1
s(g254
S'(62.5-78]'
p1847
I0
tp1848
I1
s(S'(0.4074-0.8148]'
p1849
S'(124.5-140]'
p1850
I0
tp1851
I37
s(g213
S'(124.5-140]'
p1852
I0
tp1853
I1
s(S'(0.4074-0.8148]'
p1854
S'(-inf-31.5]'
p1855
I0
tp1856
I139
s(S'(1.2222-1.6296]'
p1857
S'(47-62.5]'
p1858
I0
tp1859
I14
s(g207
S'(93.5-109]'
p1860
I1
tp1861
I1
s(g189
g1412
I1
tp1862
I1
s(S'(0.4074-0.8148]'
p1863
S'(-inf-31.5]'
p1864
I1
tp1865
I99
s(g264
g1300
I1
tp1866
I2
s(g196
S'(109-124.5]'
p1867
I0
tp1868
I42
s(g180
S'(109-124.5]'
p1869
I0
tp1870
I1
s(S'(-inf-0.4074]'
p1871
S'(31.5-47]'
p1872
I1
tp1873
I4
s(S'(1.6296-2.037]'
p1874
S'(109-124.5]'
p1875
I1
tp1876
I2
s(S'(0.8148-1.2222]'
p1877
g379
I0
tp1878
I35
s(S'(0.4074-0.8148]'
p1879
g1373
I1
tp1880
I1
s(g1273
S'(-inf-31.5]'
p1881
I0
tp1882
I5
s(S'(0.8148-1.2222]'
p1883
g401
I0
tp1884
I128
s(S'(-inf-0.4074]'
p1885
g885
I1
tp1886
I10
s(g838
g920
I0
tp1887
I87
s(S'(0.4074-0.8148]'
p1888
g286
I1
tp1889
I1
s(S'(0.8148-1.2222]'
p1890
g275
I0
tp1891
I107
sa(dp1892
(g246
g531
I1
tp1893
I2
s(g1803
S'(47.44-48.706]'
p1894
I0
tp1895
I1
s(g201
S'(52.504-inf)'
p1896
I1
tp1897
I3
s(S'(0.4074-0.8148]'
p1898
S'(52.504-inf)'
p1899
I0
tp1900
I151
s(g225
g503
I0
tp1901
I406
s(S'(0.8148-1.2222]'
p1902
g433
I0
tp1903
I4
s(g821
g444
I1
tp1904
I6
s(g196
S'(51.238-52.504]'
p1905
I0
tp1906
I320
s(S'(0.4074-0.8148]'
p1907
S'(46.174-47.44]'
p1908
I0
tp1909
I21
s(S'(0.4074-0.8148]'
p1910
S'(49.972-51.238]'
p1911
I0
tp1912
I5
s(g189
g1448
I1
tp1913
I1
s(S'(0.4074-0.8148]'
p1914
g1504
I1
tp1915
I2
s(g180
S'(52.504-inf)'
p1916
I0
tp1917
I1
s(g207
g494
I1
tp1918
I2
s(S'(1.6296-2.037]'
p1919
S'(47.44-48.706]'
p1920
I0
tp1921
I1
s(g1813
g536
I1
tp1922
I4
s(g236
g457
I1
tp1923
I17
s(g1256
g1415
I1
tp1924
I5
s(g223
g427
I0
tp1925
I2
s(g254
S'(49.972-51.238]'
p1926
I0
tp1927
I1
s(S'(0.8148-1.2222]'
p1928
g450
I0
tp1929
I295
s(S'(0.8148-1.2222]'
p1930
g472
I0
tp1931
I1
s(S'(1.6296-2.037]'
p1932
S'(48.706-49.972]'
p1933
I1
tp1934
I2
s(g1784
g1435
I1
tp1935
I121
s(S'(1.2222-1.6296]'
p1936
g489
I0
tp1937
I23
s(g1773
S'(48.706-49.972]'
p1938
I0
tp1939
I2
s(S'(0.4074-0.8148]'
p1940
S'(48.706-49.972]'
p1941
I0
tp1942
I318
s(g221
g1022
I1
tp1943
I2
s(S'(1.2222-1.6296]'
p1944
S'(47.44-48.706]'
p1945
I0
tp1946
I12
s(g1818
g501
I1
tp1947
I1
s(g193
g481
I1
tp1948
I2
s(S'(0.8148-1.2222]'
p1949
g492
I0
tp1950
I61
s(g1273
S'(48.706-49.972]'
p1951
I0
tp1952
I8
s(S'(0.8148-1.2222]'
p1953
S'(47.44-48.706]'
p1954
I0
tp1955
I230
s(g264
S'(48.706-49.972]'
p1956
I1
tp1957
I2
s(g251
S'(51.238-52.504]'
p1958
I1
tp1959
I1
s(S'(-inf-0.4074]'
p1960
S'(48.706-49.972]'
p1961
I1
tp1962
I38
s(S'(1.2222-1.6296]'
p1963
g1487
I0
tp1964
I3
s(g183
S'(51.238-52.504]'
p1965
I0
tp1966
I33
s(S'(0.8148-1.2222]'
p1967
g430
I0
tp1968
I15
s(g1793
S'(49.972-51.238]'
p1969
I1
tp1970
I4
s(g832
g518
I1
tp1971
I45
s(S'(0.4074-0.8148]'
p1972
g467
I0
tp1973
I203
s(S'(1.2222-1.6296]'
p1974
S'(52.504-inf)'
p1975
I0
tp1976
I24
s(S'(0.8148-1.2222]'
p1977
g521
I0
tp1978
I11
s(S'(0.8148-1.2222]'
p1979
g527
I0
tp1980
I396
s(g239
S'(52.504-inf)'
p1981
I0
tp1982
I2
s(g1863
S'(47.44-48.706]'
p1983
I1
tp1984
I15
s(g266
g514
I1
tp1985
I13
s(g1788
S'(52.504-inf)'
p1986
I1
tp1987
I1
s(S'(0.8148-1.2222]'
p1988
S'(47.44-48.706]'
p1989
I1
tp1990
I5
sa(dp1991
(g207
S'(18.072-23.176]'
p1992
I1
tp1993
I1
s(S'(0.4074-0.8148]'
p1994
g629
I0
tp1995
I16
s(g254
S'(12.968-18.072]'
p1996
I0
tp1997
I1
s(S'(0.8148-1.2222]'
p1998
g545
I0
tp1999
I548
s(g251
S'(18.072-23.176]'
p2000
I1
tp2001
I1
s(g186
g574
I1
tp2002
I17
s(g1214
S'(-inf-7.864]'
p2003
I1
tp2004
I1
s(S'(0.8148-1.2222]'
p2005
g582
I0
tp2006
I81
s(S'(0.8148-1.2222]'
p2007
g555
I0
tp2008
I6
s(g201
g557
I1
tp2009
I12
s(S'(1.2222-1.6296]'
p2010
S'(18.072-23.176]'
p2011
I0
tp2012
I10
s(g1238
S'(12.968-18.072]'
p2013
I0
tp2014
I31
s(S'(1.2222-1.6296]'
p2015
g1552
I0
tp2016
I1
s(g221
S'(12.968-18.072]'
p2017
I1
tp2018
I1
s(g223
g604
I0
tp2019
I3
s(S'(0.4074-0.8148]'
p2020
S'(12.968-18.072]'
p2021
I0
tp2022
I212
s(S'(1.2222-1.6296]'
p2023
S'(12.968-18.072]'
p2024
I1
tp2025
I2
s(g1273
S'(-inf-7.864]'
p2026
I0
tp2027
I4
s(g236
g608
I1
tp2028
I46
s(g213
S'(18.072-23.176]'
p2029
I0
tp2030
I1
s(S'(0.8148-1.2222]'
p2031
g569
I0
tp2032
I47
s(g1857
S'(43.592-48.696]'
p2033
I0
tp2034
I1
s(S'(0.4074-0.8148]'
p2035
g1560
I1
tp2036
I1
s(S'(0.8148-1.2222]'
p2037
S'(-inf-7.864]'
p2038
I1
tp2039
I1
s(S'(0.4074-0.8148]'
p2040
g1628
I0
tp2041
I6
s(g1256
g1630
I1
tp2042
I15
s(S'(0.4074-0.8148]'
p2043
S'(28.28-33.384]'
p2044
I0
tp2045
I61
s(g1838
S'(7.864-12.968]'
p2046
I0
tp2047
I2
s(g1803
S'(28.28-33.384]'
p2048
I0
tp2049
I1
s(g1765
g550
I0
tp2050
I404
s(g246
g1591
I1
tp2051
I3
s(S'(1.2222-1.6296]'
p2052
S'(23.176-28.28]'
p2053
I0
tp2054
I2
s(g1784
S'(7.864-12.968]'
p2055
I1
tp2056
I67
s(S'(0.4074-0.8148]'
p2057
S'(38.488-43.592]'
p2058
I0
tp2059
I22
s(S'(0.8148-1.2222]'
p2060
g566
I0
tp2061
I43
s(g210
S'(7.864-12.968]'
p2062
I0
tp2063
I366
s(S'(1.2222-1.6296]'
p2064
S'(-inf-7.864]'
p2065
I0
tp2066
I3
s(S'(0.4074-0.8148]'
p2067
S'(33.384-38.488]'
p2068
I0
tp2069
I54
s(S'(0.4074-0.8148]'
p2070
S'(18.072-23.176]'
p2071
I1
tp2072
I20
s(g239
S'(38.488-43.592]'
p2073
I0
tp2074
I1
s(S'(0.4074-0.8148]'
p2075
g590
I1
tp2076
I32
s(S'(-inf-0.4074]'
p2077
g661
I1
tp2078
I6
s(S'(0.8148-1.2222]'
p2079
g651
I0
tp2080
I13
s(g859
g1130
I0
tp2081
I2
s(S'(0.4074-0.8148]'
p2082
g602
I0
tp2083
I53
s(g180
S'(7.864-12.968]'
p2084
I0
tp2085
I4
s(S'(-inf-0.4074]'
p2086
g639
I1
tp2087
I3
s(g183
S'(7.864-12.968]'
p2088
I0
tp2089
I44
s(g1863
S'(23.176-28.28]'
p2090
I1
tp2091
I8
s(g218
g579
I1
tp2092
I1
s(S'(0.8148-1.2222]'
p2093
g563
I0
tp2094
I15
s(g1788
S'(7.864-12.968]'
p2095
I1
tp2096
I5
s(g225
g542
I0
tp2097
I215
s(g838
g552
I0
tp2098
I78
s(g189
S'(12.968-18.072]'
p2099
I1
tp2100
I1
s(S'(0.8148-1.2222]'
p2101
g646
I0
tp2102
I47
s(S'(-inf-0.4074]'
p2103
S'(12.968-18.072]'
p2104
I0
tp2105
I1
s(g862
g595
I1
tp2106
I4
s(g196
S'(18.072-23.176]'
p2107
I0
tp2108
I150
s(S'(1.2222-1.6296]'
p2109
S'(28.28-33.384]'
p2110
I0
tp2111
I1
s(g1888
g626
I1
tp2112
I1
s(g1874
g614
I1
tp2113
I2
s(g193
g663
I1
tp2114
I42
s(S'(0.8148-1.2222]'
p2115
g540
I1
tp2116
I1
sa(dp2117
(S'(0.4074-0.8148]'
p2118
g723
I0
tp2119
I5
s(S'(0.8148-1.2222]'
p2120
g742
I0
tp2121
I43
s(g225
g718
I0
tp2122
I1196
s(g1230
g676
I1
tp2123
I2
s(S'(0.8148-1.2222]'
p2124
g679
I0
tp2125
I1
s(g198
g684
I0
tp2126
I41
s(S'(0.8148-1.2222]'
p2127
g687
I0
tp2128
I37
s(S'(1.2222-1.6296]'
p2129
S'(2.174-3.478]'
p2130
I0
tp2131
I3
s(g1250
g692
I1
tp2132
I2
s(S'(0.8148-1.2222]'
p2133
g713
I0
tp2134
I8
s(g193
g699
I1
tp2135
I55
s(S'(1.2222-1.6296]'
p2136
g716
I0
tp2137
I1
s(S'(1.2222-1.6296]'
p2138
S'(3.478-4.782]'
p2139
I0
tp2140
I5
s(S'(0.8148-1.2222]'
p2141
g1714
I0
tp2142
I5
s(g236
g708
I1
tp2143
I63
s(S'(0.4074-0.8148]'
p2144
S'(8.694-9.998]'
p2145
I0
tp2146
I1
s(g180
S'(-inf-2.174]'
p2147
I0
tp2148
I8
s(g1838
S'(3.478-4.782]'
p2149
I0
tp2150
I2
s(S'(0.8148-1.2222]'
p2151
S'(2.174-3.478]'
p2152
I1
tp2153
I3
s(g254
S'(-inf-2.174]'
p2154
I0
tp2155
I1
s(S'(-inf-0.4074]'
p2156
S'(4.782-6.086]'
p2157
I0
tp2158
I2
s(g218
g736
I1
tp2159
I1
s(g246
g1718
I1
tp2160
I6
s(S'(-inf-0.4074]'
p2161
g669
I1
tp2162
I8
s(g251
S'(-inf-2.174]'
p2163
I1
tp2164
I9
s(g196
S'(-inf-2.174]'
p2165
I0
tp2166
I912
s(g213
S'(-inf-2.174]'
p2167
I0
tp2168
I3
s(S'(0.8148-1.2222]'
p2169
g739
I0
tp2170
I1
s(S'(0.8148-1.2222]'
p2171
g756
I0
tp2172
I85
s(g201
S'(-inf-2.174]'
p2173
I1
tp2174
I130
s(g221
S'(-inf-2.174]'
p2175
I1
tp2176
I1
s(S'(0.4074-0.8148]'
p2177
g682
I1
tp2178
I3
s(g223
g720
I0
tp2179
I2
s(S'(0.4074-0.8148]'
p2180
g672
I0
tp2181
I27
s(S'(0.4074-0.8148]'
p2182
S'(6.086-7.39]'
p2183
I0
tp2184
I15
s(S'(0.4074-0.8148]'
p2185
g1741
I1
tp2186
I5
s(S'(0.4074-0.8148]'
p2187
S'(3.478-4.782]'
p2188
I1
tp2189
I3
s(g183
S'(-inf-2.174]'
p2190
I0
tp2191
I86
s(S'(0.4074-0.8148]'
p2192
S'(2.174-3.478]'
p2193
I0
tp2194
I47
s(g189
S'(-inf-2.174]'
p2195
I1
tp2196
I1
s(S'(0.8148-1.2222]'
p2197
g747
I1
tp2198
I1
s(S'(0.8148-1.2222]'
p2199
g753
I0
tp2200
I2
s(S'(0.4074-0.8148]'
p2201
g702
I0
tp2202
I11
s(S'(-inf-0.4074]'
p2203
g1683
I1
tp2204
I1
sa(dp2205
(S'(-inf-31.5]'
p2206
S'(49.972-51.238]'
p2207
I0
tp2208
I1
s(g302
g457
I1
tp2209
I7
s(g291
S'(52.504-inf)'
p2210
I1
tp2211
I3
s(S'(140-155.5]'
p2212
S'(48.706-49.972]'
p2213
I0
tp2214
I2
s(S'(62.5-78]'
p2215
S'(52.504-inf)'
p2216
I0
tp2217
I159
s(S'(47-62.5]'
p2218
g1011
I1
tp2219
I12
s(S'(140-155.5]'
p2220
S'(51.238-52.504]'
p2221
I0
tp2222
I15
s(S'(109-124.5]'
p2223
g442
I0
tp2224
I2
s(g391
S'(51.238-52.504]'
p2225
I1
tp2226
I3
s(S'(62.5-78]'
p2227
g1003
I0
tp2228
I4
s(g320
S'(48.706-49.972]'
p2229
I1
tp2230
I121
s(g1814
g536
I1
tp2231
I4
s(g322
g503
I0
tp2232
I101
s(S'(62.5-78]'
p2233
g1000
I1
tp2234
I4
s(g1864
g1983
I1
tp2235
I14
s(g315
S'(51.238-52.504]'
p2236
I0
tp2237
I182
s(S'(93.5-109]'
p2238
S'(47.44-48.706]'
p2239
I1
tp2240
I1
s(g269
g481
I1
tp2241
I1
s(S'(109-124.5]'
p2242
S'(51.238-52.504]'
p2243
I1
tp2244
I12
s(g1323
S'(51.238-52.504]'
p2245
I1
tp2246
I1
s(g869
g971
I0
tp2247
I64
s(S'(62.5-78]'
p2248
S'(51.238-52.504]'
p2249
I1
tp2250
I4
s(S'(47-62.5]'
p2251
S'(49.972-51.238]'
p2252
I0
tp2253
I12
s(S'(109-124.5]'
p2254
S'(49.972-51.238]'
p2255
I0
tp2256
I19
s(S'(78-93.5]'
p2257
g1451
I0
tp2258
I123
s(S'(93.5-109]'
p2259
S'(47.44-48.706]'
p2260
I0
tp2261
I39
s(S'(140-155.5]'
p2262
S'(49.972-51.238]'
p2263
I0
tp2264
I2
s(S'(155.5-inf)'
p2265
S'(51.238-52.504]'
p2266
I0
tp2267
I1
s(S'(47-62.5]'
p2268
S'(51.238-52.504]'
p2269
I0
tp2270
I125
s(g275
S'(47.44-48.706]'
p2271
I0
tp2272
I100
s(S'(93.5-109]'
p2273
g527
I0
tp2274
I71
s(S'(93.5-109]'
p2275
g521
I0
tp2276
I1
s(S'(47-62.5]'
p2277
S'(47.44-48.706]'
p2278
I0
tp2279
I94
s(g415
g1504
I1
tp2280
I1
s(S'(31.5-47]'
p2281
S'(47.44-48.706]'
p2282
I1
tp2283
I2
s(S'(124.5-140]'
p2284
S'(48.706-49.972]'
p2285
I0
tp2286
I10
s(S'(109-124.5]'
p2287
S'(47.44-48.706]'
p2288
I0
tp2289
I7
s(S'(124.5-140]'
p2290
g467
I0
tp2291
I9
s(S'(78-93.5]'
p2292
S'(52.504-inf)'
p2293
I0
tp2294
I83
s(S'(47-62.5]'
p2295
S'(48.706-49.972]'
p2296
I0
tp2297
I117
s(S'(62.5-78]'
p2298
S'(48.706-49.972]'
p2299
I1
tp2300
I18
s(S'(93.5-109]'
p2301
g430
I0
tp2302
I7
s(g907
S'(52.504-inf)'
p2303
I1
tp2304
I8
s(g946
g518
I1
tp2305
I18
s(S'(62.5-78]'
p2306
S'(48.706-49.972]'
p2307
I0
tp2308
I109
s(g1794
g1969
I1
tp2309
I1
s(S'(78-93.5]'
p2310
S'(47.44-48.706]'
p2311
I1
tp2312
I1
s(g367
g1415
I1
tp2313
I2
s(S'(109-124.5]'
p2314
g450
I0
tp2315
I55
s(S'(31.5-47]'
p2316
S'(49.972-51.238]'
p2317
I0
tp2318
I3
s(S'(78-93.5]'
p2319
g492
I0
tp2320
I2
s(g404
S'(52.504-inf)'
p2321
I0
tp2322
I50
s(g379
S'(52.504-inf)'
p2323
I0
tp2324
I19
s(S'(93.5-109]'
p2325
g1487
I0
tp2326
I8
s(S'(31.5-47]'
p2327
S'(48.706-49.972]'
p2328
I0
tp2329
I121
s(g407
g1435
I1
tp2330
I37
s(S'(78-93.5]'
p2331
S'(-inf-42.376]'
p2332
I0
tp2333
I4
s(g286
S'(52.504-inf)'
p2334
I1
tp2335
I1
s(g1847
g1926
I0
tp2336
I6
s(S'(124.5-140]'
p2337
S'(49.972-51.238]'
p2338
I0
tp2339
I17
s(g401
S'(51.238-52.504]'
p2340
I0
tp2341
I63
s(S'(93.5-109]'
p2342
g433
I0
tp2343
I2
s(S'(109-124.5]'
p2344
S'(46.174-47.44]'
p2345
I0
tp2346
I8
s(g421
S'(47.44-48.706]'
p2347
I0
tp2348
I60
s(g340
S'(51.238-52.504]'
p2349
I0
tp2350
I139
s(S'(62.5-78]'
p2351
g472
I0
tp2352
I1
s(S'(-inf-31.5]'
p2353
S'(48.706-49.972]'
p2354
I0
tp2355
I161
s(S'(140-155.5]'
p2356
S'(46.174-47.44]'
p2357
I0
tp2358
I1
s(g300
g444
I1
tp2359
I5
s(S'(109-124.5]'
p2360
S'(-inf-42.376]'
p2361
I0
tp2362
I2
s(g885
S'(52.504-inf)'
p2363
I1
tp2364
I7
s(S'(93.5-109]'
p2365
S'(48.706-49.972]'
p2366
I1
tp2367
I3
s(S'(62.5-78]'
p2368
g512
I0
tp2369
I2
s(S'(62.5-78]'
p2370
g1040
I0
tp2371
I74
s(g298
S'(51.238-52.504]'
p2372
I0
tp2373
I135
s(S'(93.5-109]'
p2374
g1484
I0
tp2375
I32
s(S'(124.5-140]'
p2376
S'(46.174-47.44]'
p2377
I0
tp2378
I17
s(g385
S'(52.504-inf)'
p2379
I0
tp2380
I5
s(g1819
g501
I1
tp2381
I3
s(g359
S'(46.174-47.44]'
p2382
I0
tp2383
I1
s(S'(124.5-140]'
p2384
g1975
I0
tp2385
I70
s(S'(109-124.5]'
p2386
S'(48.706-49.972]'
p2387
I0
tp2388
I33
sa(dp2389
(S'(140-155.5]'
p2390
S'(33.384-38.488]'
p2391
I0
tp2392
I1
s(g946
g1082
I1
tp2393
I13
s(g1763
g557
I1
tp2394
I9
s(S'(93.5-109]'
p2395
S'(33.384-38.488]'
p2396
I0
tp2397
I11
s(g1860
g1992
I1
tp2398
I1
s(S'(-inf-31.5]'
p2399
S'(23.176-28.28]'
p2400
I0
tp2401
I16
s(S'(31.5-47]'
p2402
S'(-inf-7.864]'
p2403
I1
tp2404
I7
s(S'(93.5-109]'
p2405
g579
I1
tp2406
I1
s(S'(47-62.5]'
p2407
S'(-inf-7.864]'
p2408
I0
tp2409
I19
s(S'(93.5-109]'
p2410
S'(7.864-12.968]'
p2411
I0
tp2412
I93
s(S'(-inf-31.5]'
p2413
S'(18.072-23.176]'
p2414
I0
tp2415
I18
s(S'(140-155.5]'
p2416
g622
I0
tp2417
I3
s(g379
S'(18.072-23.176]'
p2418
I0
tp2419
I13
s(S'(-inf-31.5]'
p2420
S'(33.384-38.488]'
p2421
I0
tp2422
I6
s(S'(93.5-109]'
p2423
g1644
I0
tp2424
I12
s(S'(62.5-78]'
p2425
S'(33.384-38.488]'
p2426
I0
tp2427
I32
s(g907
g574
I1
tp2428
I6
s(S'(-inf-31.5]'
p2429
S'(7.864-12.968]'
p2430
I1
tp2431
I68
s(S'(31.5-47]'
p2432
S'(28.28-33.384]'
p2433
I0
tp2434
I6
s(S'(78-93.5]'
p2435
g2058
I0
tp2436
I9
s(S'(109-124.5]'
p2437
g639
I1
tp2438
I4
s(g2218
g540
I1
tp2439
I1
s(S'(78-93.5]'
p2440
S'(43.592-48.696]'
p2441
I0
tp2442
I8
s(S'(31.5-47]'
p2443
S'(23.176-28.28]'
p2444
I0
tp2445
I8
s(S'(109-124.5]'
p2446
g563
I0
tp2447
I4
s(S'(62.5-78]'
p2448
g1552
I0
tp2449
I20
s(g359
S'(28.28-33.384]'
p2450
I0
tp2451
I1
s(g1354
g1516
I1
tp2452
I17
s(S'(140-155.5]'
p2453
S'(23.176-28.28]'
p2454
I0
tp2455
I3
s(S'(124.5-140]'
p2456
S'(18.072-23.176]'
p2457
I1
tp2458
I1
s(S'(109-124.5]'
p2459
S'(43.592-48.696]'
p2460
I0
tp2461
I1
s(g401
g1586
I0
tp2462
I54
s(S'(47-62.5]'
p2463
S'(38.488-43.592]'
p2464
I0
tp2465
I3
s(S'(78-93.5]'
p2466
g2044
I0
tp2467
I16
s(S'(78-93.5]'
p2468
S'(-inf-7.864]'
p2469
I0
tp2470
I19
s(g407
g2055
I1
tp2471
I27
s(S'(47-62.5]'
p2472
S'(7.864-12.968]'
p2473
I0
tp2474
I148
s(S'(109-124.5]'
p2475
g1114
I0
tp2476
I2
s(S'(78-93.5]'
p2477
S'(18.072-23.176]'
p2478
I0
tp2479
I55
s(g302
g608
I1
tp2480
I25
s(S'(109-124.5]'
p2481
S'(7.864-12.968]'
p2482
I0
tp2483
I70
s(S'(47-62.5]'
p2484
S'(33.384-38.488]'
p2485
I0
tp2486
I14
s(g322
g542
I0
tp2487
I42
s(S'(31.5-47]'
p2488
S'(12.968-18.072]'
p2489
I1
tp2490
I1
s(S'(-inf-31.5]'
p2491
g1514
I0
tp2492
I25
s(g413
S'(12.968-18.072]'
p2493
I0
tp2494
I111
s(g320
g1634
I1
tp2495
I20
s(S'(93.5-109]'
p2496
S'(43.592-48.696]'
p2497
I0
tp2498
I1
s(g404
S'(18.072-23.176]'
p2499
I0
tp2500
I58
s(S'(31.5-47]'
p2501
S'(18.072-23.176]'
p2502
I1
tp2503
I3
s(S'(62.5-78]'
p2504
S'(-inf-7.864]'
p2505
I0
tp2506
I10
s(S'(62.5-78]'
p2507
S'(23.176-28.28]'
p2508
I0
tp2509
I29
s(g291
S'(7.864-12.968]'
p2510
I1
tp2511
I2
s(g298
S'(12.968-18.072]'
p2512
I0
tp2513
I91
s(g340
g550
I0
tp2514
I105
s(g1410
g1560
I1
tp2515
I1
s(S'(93.5-109]'
p2516
S'(18.072-23.176]'
p2517
I0
tp2518
I50
s(g351
S'(7.864-12.968]'
p2519
I0
tp2520
I179
s(g315
S'(12.968-18.072]'
p2521
I0
tp2522
I114
s(g1286
S'(-inf-7.864]'
p2523
I1
tp2524
I3
s(g1864
g2090
I1
tp2525
I7
s(S'(31.5-47]'
p2526
S'(-inf-7.864]'
p2527
I0
tp2528
I20
s(g300
g1057
I1
tp2529
I12
s(g920
g552
I0
tp2530
I20
s(S'(62.5-78]'
p2531
g1628
I0
tp2532
I6
s(S'(78-93.5]'
p2533
g611
I0
tp2534
I12
s(S'(124.5-140]'
p2535
S'(23.176-28.28]'
p2536
I0
tp2537
I29
s(S'(124.5-140]'
p2538
S'(28.28-33.384]'
p2539
I1
tp2540
I1
s(S'(-inf-31.5]'
p2541
S'(38.488-43.592]'
p2542
I0
tp2543
I1
s(S'(109-124.5]'
p2544
g569
I0
tp2545
I18
s(S'(93.5-109]'
p2546
S'(38.488-43.592]'
p2547
I0
tp2548
I1
s(g421
S'(7.864-12.968]'
p2549
I0
tp2550
I105
s(S'(109-124.5]'
p2551
S'(12.968-18.072]'
p2552
I0
tp2553
I63
s(S'(47-62.5]'
p2554
S'(28.28-33.384]'
p2555
I0
tp2556
I14
s(S'(124.5-140]'
p2557
S'(33.384-38.488]'
p2558
I0
tp2559
I4
s(g286
g626
I1
tp2560
I1
s(g2281
S'(23.176-28.28]'
p2561
I1
tp2562
I1
s(g2262
g566
I0
tp2563
I2
s(S'(109-124.5]'
p2564
S'(28.28-33.384]'
p2565
I0
tp2566
I8
s(g1404
S'(23.176-28.28]'
p2567
I0
tp2568
I16
s(g1344
S'(12.968-18.072]'
p2569
I0
tp2570
I41
s(S'(93.5-109]'
p2571
g602
I0
tp2572
I6
s(S'(78-93.5]'
p2573
S'(48.696-inf)'
p2574
I0
tp2575
I1
s(S'(140-155.5]'
p2576
S'(7.864-12.968]'
p2577
I0
tp2578
I5
s(S'(124.5-140]'
p2579
g646
I0
tp2580
I13
s(S'(62.5-78]'
p2581
g629
I0
tp2582
I10
s(S'(124.5-140]'
p2583
g1589
I0
tp2584
I50
s(S'(31.5-47]'
p2585
S'(38.488-43.592]'
p2586
I0
tp2587
I1
s(g391
S'(12.968-18.072]'
p2588
I1
tp2589
I2
s(g385
S'(12.968-18.072]'
p2590
I0
tp2591
I5
s(g1814
S'(7.864-12.968]'
p2592
I1
tp2593
I11
s(S'(78-93.5]'
p2594
g1526
I0
tp2595
I21
s(g1808
S'(7.864-12.968]'
p2596
I0
tp2597
I97
s(S'(47-62.5]'
p2598
g555
I0
tp2599
I5
s(S'(62.5-78]'
p2600
S'(28.28-33.384]'
p2601
I0
tp2602
I27
s(S'(155.5-inf)'
p2603
S'(7.864-12.968]'
p2604
I0
tp2605
I1
s(g1323
S'(18.072-23.176]'
p2606
I1
tp2607
I1
s(g269
g663
I1
tp2608
I5
s(S'(31.5-47]'
p2609
S'(33.384-38.488]'
p2610
I0
tp2611
I5
s(S'(62.5-78]'
p2612
g545
I0
tp2613
I230
s(g367
g1630
I1
tp2614
I4
s(S'(109-124.5]'
p2615
g661
I1
tp2616
I6
s(S'(62.5-78]'
p2617
S'(18.072-23.176]'
p2618
I0
tp2619
I59
s(S'(31.5-47]'
p2620
S'(12.968-18.072]'
p2621
I0
tp2622
I56
s(S'(-inf-31.5]'
p2623
g1651
I1
tp2624
I22
s(g275
S'(18.072-23.176]'
p2625
I0
tp2626
I31
s(S'(140-155.5]'
p2627
S'(12.968-18.072]'
p2628
I0
tp2629
I12
s(S'(62.5-78]'
p2630
g590
I1
tp2631
I2
s(S'(124.5-140]'
p2632
S'(7.864-12.968]'
p2633
I0
tp2634
I36
s(g937
g1084
I1
tp2635
I7
s(S'(109-124.5]'
p2636
g582
I0
tp2637
I19
s(g1780
g2017
I1
tp2638
I2
s(S'(47-62.5]'
p2639
S'(43.592-48.696]'
p2640
I0
tp2641
I10
s(S'(-inf-31.5]'
p2642
S'(28.28-33.384]'
p2643
I0
tp2644
I10
sa(dp2645
(S'(-inf-31.5]'
p2646
g1732
I1
tp2647
I1
s(g367
g1723
I1
tp2648
I16
s(S'(62.5-78]'
p2649
g723
I0
tp2650
I1
s(S'(78-93.5]'
p2651
g679
I0
tp2652
I1
s(g320
S'(-inf-2.174]'
p2653
I1
tp2654
I119
s(g1323
g726
I1
tp2655
I1
s(g379
S'(-inf-2.174]'
p2656
I0
tp2657
I38
s(S'(31.5-47]'
p2658
S'(4.782-6.086]'
p2659
I0
tp2660
I11
s(S'(78-93.5]'
p2661
g687
I0
tp2662
I9
s(S'(31.5-47]'
p2663
S'(2.174-3.478]'
p2664
I0
tp2665
I10
s(g322
g718
I0
tp2666
I214
s(S'(31.5-47]'
p2667
S'(3.478-4.782]'
p2668
I0
tp2669
I11
s(S'(93.5-109]'
p2670
g716
I0
tp2671
I7
s(S'(-inf-31.5]'
p2672
S'(2.174-3.478]'
p2673
I0
tp2674
I17
s(S'(47-62.5]'
p2675
S'(4.782-6.086]'
p2676
I0
tp2677
I9
s(S'(62.5-78]'
p2678
g747
I1
tp2679
I1
s(g269
g699
I1
tp2680
I18
s(g325
S'(3.478-4.782]'
p2681
I0
tp2682
I7
s(S'(31.5-47]'
p2683
g1714
I0
tp2684
I4
s(S'(-inf-31.5]'
p2685
g1741
I1
tp2686
I8
s(g275
S'(-inf-2.174]'
p2687
I0
tp2688
I167
s(S'(124.5-140]'
p2689
g756
I0
tp2690
I5
s(S'(-inf-31.5]'
p2691
S'(6.086-7.39]'
p2692
I0
tp2693
I4
s(S'(31.5-47]'
p2694
g2145
I0
tp2695
I2
s(S'(-inf-31.5]'
p2696
g682
I1
tp2697
I4
s(g2516
g713
I0
tp2698
I2
s(g1855
S'(4.782-6.086]'
p2699
I0
tp2700
I4
s(S'(47-62.5]'
p2701
S'(2.174-3.478]'
p2702
I1
tp2703
I2
s(S'(140-155.5]'
p2704
S'(2.174-3.478]'
p2705
I0
tp2706
I1
s(S'(-inf-31.5]'
p2707
S'(7.39-8.694]'
p2708
I0
tp2709
I1
s(S'(109-124.5]'
p2710
S'(4.782-6.086]'
p2711
I0
tp2712
I2
s(S'(31.5-47]'
p2713
S'(9.998-11.302]'
p2714
I0
tp2715
I2
s(S'(31.5-47]'
p2716
S'(6.086-7.39]'
p2717
I0
tp2718
I17
s(S'(109-124.5]'
p2719
S'(2.174-3.478]'
p2720
I0
tp2721
I9
s(S'(-inf-31.5]'
p2722
S'(3.478-4.782]'
p2723
I1
tp2724
I3
s(S'(78-93.5]'
p2725
g729
I0
tp2726
I22
s(S'(109-124.5]'
p2727
g669
I1
tp2728
I3
s(g2484
g750
I0
tp2729
I4
s(S'(78-93.5]'
p2730
g1701
I0
tp2731
I1
s(S'(78-93.5]'
p2732
g753
I0
tp2733
I1
s(g315
S'(-inf-2.174]'
p2734
I0
tp2735
I469
s(g385
S'(-inf-2.174]'
p2736
I0
tp2737
I7
s(g407
S'(-inf-2.174]'
p2738
I1
tp2739
I38
s(S'(93.5-109]'
p2740
S'(2.174-3.478]'
p2741
I1
tp2742
I1
s(g2405
g736
I1
tp2743
I1
s(g291
S'(-inf-2.174]'
p2744
I1
tp2745
I6
s(g302
g708
I1
tp2746
I33
s(g1401
g1688
I1
tp2747
I1
s(S'(93.5-109]'
p2748
S'(2.174-3.478]'
p2749
I0
tp2750
I15
s(g401
S'(-inf-2.174]'
p2751
I0
tp2752
I181
s(g2353
S'(9.998-11.302]'
p2753
I0
tp2754
I1
s(S'(78-93.5]'
p2755
g702
I0
tp2756
I14
s(g404
S'(-inf-2.174]'
p2757
I0
tp2758
I331
s(S'(62.5-78]'
p2759
S'(3.478-4.782]'
p2760
I0
tp2761
I17
s(S'(62.5-78]'
p2762
S'(6.086-7.39]'
p2763
I0
tp2764
I6
s(g340
S'(-inf-2.174]'
p2765
I0
tp2766
I262
s(S'(62.5-78]'
p2767
S'(9.998-11.302]'
p2768
I0
tp2769
I1
s(S'(109-124.5]'
p2770
S'(3.478-4.782]'
p2771
I0
tp2772
I2
s(g306
g684
I0
tp2773
I7
s(g1388
g676
I1
tp2774
I1
s(g1872
S'(2.174-3.478]'
p2775
I1
tp2776
I1
s(g300
g1140
I1
tp2777
I14
s(g298
S'(-inf-2.174]'
p2778
I0
tp2779
I349
s(S'(62.5-78]'
p2780
g2193
I0
tp2781
I35
s(S'(47-62.5]'
p2782
S'(2.174-3.478]'
p2783
I0
tp2784
I23
s(g286
S'(-inf-2.174]'
p2785
I1
tp2786
I21
s(S'(47-62.5]'
p2787
S'(3.478-4.782]'
p2788
I0
tp2789
I20
s(S'(93.5-109]'
p2790
g672
I0
tp2791
I6
s(g421
S'(-inf-2.174]'
p2792
I0
tp2793
I188
s(S'(62.5-78]'
p2794
g739
I0
tp2795
I1
s(g2368
g1692
I0
tp2796
I7
s(S'(47-62.5]'
p2797
S'(6.086-7.39]'
p2798
I0
tp2799
I10
s(S'(78-93.5]'
p2800
S'(3.478-4.782]'
p2801
I0
tp2802
I14
s(S'(47-62.5]'
p2803
S'(9.998-11.302]'
p2804
I0
tp2805
I1
s(g1771
g692
I1
tp2806
I1
sa(dp2807
(g1000
S'(12.968-18.072]'
p2808
I1
tp2809
I3
s(S'(49.972-51.238]'
p2810
S'(23.176-28.28]'
p2811
I0
tp2812
I4
s(g1433
g1560
I1
tp2813
I1
s(S'(48.706-49.972]'
p2814
S'(28.28-33.384]'
p2815
I0
tp2816
I17
s(S'(51.238-52.504]'
p2817
g1574
I0
tp2818
I5
s(S'(-inf-42.376]'
p2819
S'(7.864-12.968]'
p2820
I0
tp2821
I6
s(g1035
g1084
I1
tp2822
I25
s(S'(46.174-47.44]'
p2823
S'(38.488-43.592]'
p2824
I0
tp2825
I1
s(g472
S'(18.072-23.176]'
p2826
I0
tp2827
I1
s(g1028
g1116
I0
tp2828
I174
s(g527
S'(12.968-18.072]'
p2829
I0
tp2830
I213
s(g1989
g1546
I1
tp2831
I2
s(S'(52.504-inf)'
p2832
g2505
I0
tp2833
I12
s(g481
g663
I1
tp2834
I3
s(S'(51.238-52.504]'
p2835
g579
I1
tp2836
I1
s(S'(47.44-48.706]'
p2837
S'(33.384-38.488]'
p2838
I0
tp2839
I11
s(g2263
g566
I0
tp2840
I1
s(S'(47.44-48.706]'
p2841
S'(18.072-23.176]'
p2842
I0
tp2843
I63
s(g1487
S'(7.864-12.968]'
p2844
I0
tp2845
I25
s(S'(46.174-47.44]'
p2846
S'(28.28-33.384]'
p2847
I0
tp2848
I5
s(g447
S'(12.968-18.072]'
p2849
I0
tp2850
I3
s(S'(52.504-inf)'
p2851
g582
I0
tp2852
I25
s(g2243
g595
I1
tp2853
I8
s(S'(48.706-49.972]'
p2854
S'(33.384-38.488]'
p2855
I0
tp2856
I11
s(g521
S'(18.072-23.176]'
p2857
I0
tp2858
I11
s(g444
g1057
I1
tp2859
I4
s(S'(51.238-52.504]'
p2860
g646
I0
tp2861
I27
s(g462
S'(33.384-38.488]'
p2862
I0
tp2863
I1
s(g1490
S'(28.28-33.384]'
p2864
I0
tp2865
I1
s(g503
g542
I0
tp2866
I134
s(S'(52.504-inf)'
p2867
g639
I1
tp2868
I4
s(S'(49.972-51.238]'
p2869
g2110
I0
tp2870
I2
s(S'(51.238-52.504]'
p2871
S'(28.28-33.384]'
p2872
I1
tp2873
I1
s(S'(51.238-52.504]'
p2874
g2454
I0
tp2875
I45
s(S'(46.174-47.44]'
p2876
S'(23.176-28.28]'
p2877
I0
tp2878
I9
s(S'(47.44-48.706]'
p2879
g2527
I0
tp2880
I7
s(S'(-inf-42.376]'
p2881
S'(23.176-28.28]'
p2882
I0
tp2883
I2
s(S'(48.706-49.972]'
p2884
g1651
I1
tp2885
I32
s(g2334
g626
I1
tp2886
I1
s(g1451
S'(7.864-12.968]'
p2887
I0
tp2888
I312
s(S'(47.44-48.706]'
p2889
g2038
I1
tp2890
I1
s(S'(48.706-49.972]'
p2891
S'(38.488-43.592]'
p2892
I0
tp2893
I7
s(S'(48.706-49.972]'
p2894
S'(-inf-7.864]'
p2895
I0
tp2896
I61
s(S'(51.238-52.504]'
p2897
g545
I0
tp2898
I325
s(g2229
g1634
I1
tp2899
I21
s(S'(47.44-48.706]'
p2900
S'(12.968-18.072]'
p2901
I1
tp2902
I4
s(g2303
g574
I1
tp2903
I5
s(S'(46.174-47.44]'
p2904
S'(7.864-12.968]'
p2905
I0
tp2906
I1
s(S'(47.44-48.706]'
p2907
S'(23.176-28.28]'
p2908
I0
tp2909
I40
s(S'(49.972-51.238]'
p2910
S'(12.968-18.072]'
p2911
I0
tp2912
I25
s(S'(51.238-52.504]'
p2913
g569
I0
tp2914
I25
s(S'(52.504-inf)'
p2915
g563
I0
tp2916
I19
s(g1975
S'(12.968-18.072]'
p2917
I0
tp2918
I110
s(S'(52.504-inf)'
p2919
g1589
I0
tp2920
I67
s(g1983
g2090
I1
tp2921
I8
s(S'(52.504-inf)'
p2922
S'(28.28-33.384]'
p2923
I0
tp2924
I37
s(g492
S'(18.072-23.176]'
p2925
I0
tp2926
I13
s(g433
S'(12.968-18.072]'
p2927
I0
tp2928
I3
s(S'(52.504-inf)'
p2929
g661
I1
tp2930
I1
s(g2349
g550
I0
tp2931
I166
s(S'(51.238-52.504]'
p2932
g602
I0
tp2933
I21
s(S'(47.44-48.706]'
p2934
S'(43.592-48.696]'
p2935
I0
tp2936
I1
s(S'(51.238-52.504]'
p2937
S'(48.696-inf)'
p2938
I0
tp2939
I3
s(g457
g608
I1
tp2940
I17
s(g2357
S'(12.968-18.072]'
p2941
I0
tp2942
I3
s(g1022
g2017
I1
tp2943
I11
s(g536
g2592
I1
tp2944
I9
s(g450
S'(7.864-12.968]'
p2945
I0
tp2946
I121
s(g430
S'(18.072-23.176]'
p2947
I0
tp2948
I3
s(g453
S'(-inf-7.864]'
p2949
I0
tp2950
I1
s(S'(52.504-inf)'
p2951
g555
I0
tp2952
I9
s(g467
g1103
I0
tp2953
I129
s(S'(51.238-52.504]'
p2954
g590
I1
tp2955
I1
s(S'(47.44-48.706]'
p2956
g2586
I0
tp2957
I2
s(S'(48.706-49.972]'
p2958
S'(23.176-28.28]'
p2959
I0
tp2960
I36
s(g1011
g540
I1
tp2961
I1
s(S'(48.706-49.972]'
p2962
S'(43.592-48.696]'
p2963
I0
tp2964
I6
s(S'(48.706-49.972]'
p2965
S'(18.072-23.176]'
p2966
I0
tp2967
I84
s(S'(52.504-inf)'
p2968
g629
I0
tp2969
I18
s(S'(-inf-42.376]'
p2970
S'(28.28-33.384]'
p2971
I0
tp2972
I1
s(S'(51.238-52.504]'
p2973
S'(38.488-43.592]'
p2974
I0
tp2975
I10
s(S'(52.504-inf)'
p2976
g611
I0
tp2977
I55
s(S'(47.44-48.706]'
p2978
g2433
I0
tp2979
I20
s(g518
g1082
I1
tp2980
I130
sa(dp2981
(g521
S'(-inf-2.174]'
p2982
I0
tp2983
I31
s(g481
g699
I1
tp2984
I6
s(S'(48.706-49.972]'
p2985
g1741
I1
tp2986
I9
s(S'(47.44-48.706]'
p2987
g2659
I0
tp2988
I8
s(g503
g718
I0
tp2989
I681
s(S'(48.706-49.972]'
p2990
g1732
I1
tp2991
I1
s(S'(51.238-52.504]'
p2992
g713
I0
tp2993
I3
s(g512
g1692
I0
tp2994
I1
s(g467
S'(-inf-2.174]'
p2995
I0
tp2996
I366
s(S'(51.238-52.504]'
p2997
g679
I0
tp2998
I1
s(S'(47.44-48.706]'
p2999
S'(8.694-9.998]'
p3000
I0
tp3001
I1
s(S'(47.44-48.706]'
p3002
g2768
I0
tp3003
I1
s(g430
S'(-inf-2.174]'
p3004
I0
tp3005
I14
s(g484
g710
I0
tp3006
I25
s(S'(52.504-inf)'
p3007
g2760
I0
tp3008
I12
s(S'(51.238-52.504]'
p3009
g716
I0
tp3010
I16
s(S'(47.44-48.706]'
p3011
g1714
I0
tp3012
I2
s(S'(52.504-inf)'
p3013
g669
I1
tp3014
I1
s(g1472
g676
I1
tp3015
I1
s(S'(48.706-49.972]'
p3016
g2714
I0
tp3017
I4
s(g527
S'(-inf-2.174]'
p3018
I0
tp3019
I629
s(S'(52.504-inf)'
p3020
g756
I0
tp3021
I28
s(S'(52.504-inf)'
p3022
S'(4.782-6.086]'
p3023
I0
tp3024
I9
s(S'(52.504-inf)'
p3025
S'(6.086-7.39]'
p3026
I0
tp3027
I4
s(g2307
S'(2.174-3.478]'
p3028
I0
tp3029
I43
s(S'(49.972-51.238]'
p3030
S'(4.782-6.086]'
p3031
I0
tp3032
I3
s(S'(52.504-inf)'
p3033
g692
I1
tp3034
I1
s(g518
g1157
I1
tp3035
I191
s(g472
S'(-inf-2.174]'
p3036
I0
tp3037
I1
s(S'(48.706-49.972]'
p3038
g739
I0
tp3039
I1
s(S'(52.504-inf)'
p3040
g750
I0
tp3041
I1
s(S'(48.706-49.972]'
p3042
g682
I1
tp3043
I4
s(S'(48.706-49.972]'
p3044
S'(6.086-7.39]'
p3045
I0
tp3046
I23
s(g2835
g736
I1
tp3047
I1
s(S'(47.44-48.706]'
p3048
S'(6.086-7.39]'
p3049
I0
tp3050
I10
s(S'(48.706-49.972]'
p3051
S'(7.39-8.694]'
p3052
I0
tp3053
I5
s(S'(51.238-52.504]'
p3054
g672
I0
tp3055
I11
s(S'(51.238-52.504]'
p3056
g753
I0
tp3057
I1
s(S'(48.706-49.972]'
p3058
S'(3.478-4.782]'
p3059
I0
tp3060
I27
s(S'(48.706-49.972]'
p3061
S'(4.782-6.086]'
p3062
I0
tp3063
I14
s(S'(47.44-48.706]'
p3064
S'(2.174-3.478]'
p3065
I0
tp3066
I34
s(g536
S'(-inf-2.174]'
p3067
I1
tp3068
I22
s(S'(48.706-49.972]'
p3069
g2723
I1
tp3070
I3
s(S'(47.44-48.706]'
p3071
S'(2.174-3.478]'
p3072
I1
tp3073
I2
s(S'(49.972-51.238]'
p3074
S'(3.478-4.782]'
p3075
I0
tp3076
I2
s(S'(49.972-51.238]'
p3077
S'(2.174-3.478]'
p3078
I0
tp3079
I4
s(g433
S'(-inf-2.174]'
p3080
I0
tp3081
I4
s(g439
g684
I0
tp3082
I19
s(S'(51.238-52.504]'
p3083
g2705
I0
tp3084
I27
s(g2900
S'(3.478-4.782]'
p3085
I1
tp3086
I1
s(g450
S'(-inf-2.174]'
p3087
I0
tp3088
I419
s(S'(46.174-47.44]'
p3089
S'(2.174-3.478]'
p3090
I0
tp3091
I1
s(S'(48.706-49.972]'
p3092
g747
I1
tp3093
I1
s(S'(51.238-52.504]'
p3094
g2741
I1
tp3095
I4
s(g492
S'(-inf-2.174]'
p3096
I0
tp3097
I61
s(S'(51.238-52.504]'
p3098
g723
I0
tp3099
I2
s(g457
g708
I1
tp3100
I25
s(g444
g1140
I1
tp3101
I21
s(S'(48.706-49.972]'
p3102
g2145
I0
tp3103
I1
sa(dp3104
(S'(12.968-18.072]'
p3105
S'(6.086-7.39]'
p3106
I1
tp3107
I1
s(S'(18.072-23.176]'
p3108
g3000
I0
tp3109
I1
s(S'(-inf-7.864]'
p3110
S'(4.782-6.086]'
p3111
I0
tp3112
I1
s(g590
S'(-inf-2.174]'
p3113
I1
tp3114
I32
s(S'(12.968-18.072]'
p3115
g716
I0
tp3116
I14
s(g646
S'(-inf-2.174]'
p3117
I0
tp3118
I107
s(g2485
g750
I0
tp3119
I1
s(S'(7.864-12.968]'
p3120
g2705
I0
tp3121
I51
s(g2517
g713
I0
tp3122
I2
s(g639
S'(-inf-2.174]'
p3123
I1
tp3124
I5
s(g582
S'(-inf-2.174]'
p3125
I0
tp3126
I154
s(S'(28.28-33.384]'
p3127
g669
I1
tp3128
I1
s(S'(-inf-7.864]'
p3129
g742
I0
tp3130
I3
s(g2033
S'(2.174-3.478]'
p3131
I0
tp3132
I1
s(g569
S'(-inf-2.174]'
p3133
I0
tp3134
I79
s(S'(18.072-23.176]'
p3135
g2749
I0
tp3136
I14
s(S'(33.384-38.488]'
p3137
S'(6.086-7.39]'
p3138
I0
tp3139
I2
s(S'(33.384-38.488]'
p3140
g1701
I0
tp3141
I1
s(S'(7.864-12.968]'
p3142
g1741
I1
tp3143
I9
s(S'(48.696-inf)'
p3144
g2783
I0
tp3145
I1
s(S'(12.968-18.072]'
p3146
S'(7.39-8.694]'
p3147
I0
tp3148
I3
s(g563
S'(-inf-2.174]'
p3149
I0
tp3150
I34
s(S'(12.968-18.072]'
p3151
g2145
I0
tp3152
I1
s(S'(12.968-18.072]'
p3153
g702
I0
tp3154
I14
s(S'(-inf-7.864]'
p3155
S'(2.174-3.478]'
p3156
I1
tp3157
I1
s(S'(18.072-23.176]'
p3158
S'(6.086-7.39]'
p3159
I0
tp3160
I2
s(S'(18.072-23.176]'
p3161
g672
I0
tp3162
I5
s(g550
g2765
I0
tp3163
I551
s(g643
g684
I0
tp3164
I10
s(S'(12.968-18.072]'
p3165
g2804
I0
tp3166
I2
s(g574
S'(-inf-2.174]'
p3167
I1
tp3168
I42
s(S'(-inf-7.864]'
p3169
g682
I1
tp3170
I1
s(g2606
g726
I1
tp3171
I1
s(S'(33.384-38.488]'
p3172
g2711
I0
tp3173
I4
s(S'(-inf-7.864]'
p3174
g739
I0
tp3175
I1
s(S'(-inf-7.864]'
p3176
g687
I0
tp3177
I2
s(S'(48.696-inf)'
p3178
g2798
I0
tp3179
I1
s(S'(7.864-12.968]'
p3180
g747
I1
tp3181
I1
s(S'(-inf-7.864]'
p3182
S'(2.174-3.478]'
p3183
I0
tp3184
I5
s(S'(7.864-12.968]'
p3185
g1683
I1
tp3186
I2
s(S'(7.864-12.968]'
p3187
g692
I1
tp3188
I2
s(S'(12.968-18.072]'
p3189
g2741
I1
tp3190
I4
s(S'(7.864-12.968]'
p3191
g753
I0
tp3192
I1
s(S'(7.864-12.968]'
p3193
g2801
I0
tp3194
I37
s(S'(7.864-12.968]'
p3195
S'(6.086-7.39]'
p3196
I0
tp3197
I31
s(g566
S'(-inf-2.174]'
p3198
I0
tp3199
I91
s(S'(12.968-18.072]'
p3200
g756
I0
tp3201
I41
s(g555
S'(-inf-2.174]'
p3202
I0
tp3203
I10
s(g1584
g676
I1
tp3204
I4
s(S'(7.864-12.968]'
p3205
g679
I0
tp3206
I1
s(g661
S'(-inf-2.174]'
p3207
I1
tp3208
I31
s(S'(23.176-28.28]'
p3209
S'(3.478-4.782]'
p3210
I0
tp3211
I2
s(S'(38.488-43.592]'
p3212
g3026
I0
tp3213
I1
s(g542
g718
I0
tp3214
I341
s(S'(33.384-38.488]'
p3215
g2720
I0
tp3216
I12
s(g629
S'(-inf-2.174]'
p3217
I0
tp3218
I29
s(S'(7.864-12.968]'
p3219
g1692
I0
tp3220
I25
s(g617
S'(2.174-3.478]'
p3221
I0
tp3222
I4
s(g626
g2785
I1
tp3223
I1
s(S'(28.28-33.384]'
p3224
S'(2.174-3.478]'
p3225
I0
tp3226
I3
s(S'(7.864-12.968]'
p3227
g723
I0
tp3228
I5
s(g2068
g1680
I0
tp3229
I4
s(S'(23.176-28.28]'
p3230
S'(2.174-3.478]'
p3231
I0
tp3232
I5
s(g540
S'(-inf-2.174]'
p3233
I1
tp3234
I9
s(g579
g736
I1
tp3235
I1
s(g545
S'(-inf-2.174]'
p3236
I0
tp3237
I810
s(S'(7.864-12.968]'
p3238
g695
I0
tp3239
I3
s(g663
g699
I1
tp3240
I145
s(S'(12.968-18.072]'
p3241
g2139
I0
tp3242
I26
s(g2901
g3085
I1
tp3243
I1
s(S'(18.072-23.176]'
p3244
S'(7.39-8.694]'
p3245
I0
tp3246
I1
sa(dp3247
(I0
tp3248
I2550
s(I1
tp3249
I294
sa.